Archive member included to satisfy reference by file (symbol)

e:/qmk_msys/mingw64/bin/../lib/gcc/avr/8.4.0/../../../../avr/lib/avr5\libm.a(fixunssfsi.o)
                              .build/obj_atelier6k_default/protocol/host.o (__fixunssfsi)
e:/qmk_msys/mingw64/bin/../lib/gcc/avr/8.4.0/../../../../avr/lib/avr5\libm.a(fp_split3.o)
                              e:/qmk_msys/mingw64/bin/../lib/gcc/avr/8.4.0/../../../../avr/lib/avr5\libm.a(fixunssfsi.o) (__fp_splitA)
e:/qmk_msys/mingw64/bin/../lib/gcc/avr/8.4.0/../../../../avr/lib/avr5\libm.a(fp_zero.o)
                              e:/qmk_msys/mingw64/bin/../lib/gcc/avr/8.4.0/../../../../avr/lib/avr5\libm.a(fixunssfsi.o) (__fp_zero)
e:/qmk_msys/mingw64/bin/../lib/gcc/avr/8.4.0/../../../../avr/lib/avr5\libm.a(mulsf3.o)
                              .build/obj_atelier6k_default/protocol/host.o (__mulsf3)
e:/qmk_msys/mingw64/bin/../lib/gcc/avr/8.4.0/../../../../avr/lib/avr5\libm.a(mulsf3x.o)
                              e:/qmk_msys/mingw64/bin/../lib/gcc/avr/8.4.0/../../../../avr/lib/avr5\libm.a(mulsf3.o) (__mulsf3x)
e:/qmk_msys/mingw64/bin/../lib/gcc/avr/8.4.0/../../../../avr/lib/avr5\libm.a(fp_inf.o)
                              e:/qmk_msys/mingw64/bin/../lib/gcc/avr/8.4.0/../../../../avr/lib/avr5\libm.a(mulsf3x.o) (__fp_inf)
e:/qmk_msys/mingw64/bin/../lib/gcc/avr/8.4.0/../../../../avr/lib/avr5\libm.a(fp_nan.o)
                              e:/qmk_msys/mingw64/bin/../lib/gcc/avr/8.4.0/../../../../avr/lib/avr5\libm.a(mulsf3x.o) (__fp_nan)
e:/qmk_msys/mingw64/bin/../lib/gcc/avr/8.4.0/../../../../avr/lib/avr5\libm.a(fp_pscA.o)
                              e:/qmk_msys/mingw64/bin/../lib/gcc/avr/8.4.0/../../../../avr/lib/avr5\libm.a(mulsf3x.o) (__fp_pscA)
e:/qmk_msys/mingw64/bin/../lib/gcc/avr/8.4.0/../../../../avr/lib/avr5\libm.a(fp_pscB.o)
                              e:/qmk_msys/mingw64/bin/../lib/gcc/avr/8.4.0/../../../../avr/lib/avr5\libm.a(mulsf3x.o) (__fp_pscB)
e:/qmk_msys/mingw64/bin/../lib/gcc/avr/8.4.0/../../../../avr/lib/avr5\libm.a(fp_round.o)
                              e:/qmk_msys/mingw64/bin/../lib/gcc/avr/8.4.0/../../../../avr/lib/avr5\libm.a(mulsf3.o) (__fp_round)
e:/qmk_msys/mingw64/bin/../lib/gcc/avr/8.4.0/avr5\libgcc.a(_mulsi3.o)
                              .build/obj_atelier6k_default/quantum/backlight/backlight_avr.o (__mulsi3)
e:/qmk_msys/mingw64/bin/../lib/gcc/avr/8.4.0/avr5\libgcc.a(_divmodqi4.o)
                              .build/obj_atelier6k_default/quantum/rgblight/rgblight.o (__divmodqi4)
e:/qmk_msys/mingw64/bin/../lib/gcc/avr/8.4.0/avr5\libgcc.a(_udivmodhi4.o)
                              .build/obj_atelier6k_default/quantum/color.o (__udivmodhi4)
e:/qmk_msys/mingw64/bin/../lib/gcc/avr/8.4.0/avr5\libgcc.a(_divmodhi4.o)
                              .build/obj_atelier6k_default/quantum/mousekey.o (__divmodhi4)
e:/qmk_msys/mingw64/bin/../lib/gcc/avr/8.4.0/avr5\libgcc.a(_udivmodsi4.o)
                              .build/obj_atelier6k_default/quantum/quantum.o (__udivmodsi4)
e:/qmk_msys/mingw64/bin/../lib/gcc/avr/8.4.0/avr5\libgcc.a(_exit.o)
                              e:/qmk_msys/mingw64/bin/../lib/gcc/avr/8.4.0/../../../../avr/lib/avr5/crtatmega32u4.o (exit)
e:/qmk_msys/mingw64/bin/../lib/gcc/avr/8.4.0/avr5\libgcc.a(_tablejump2.o)
                              .build/obj_atelier6k_default/quantum/action.o (__tablejump2__)
e:/qmk_msys/mingw64/bin/../lib/gcc/avr/8.4.0/avr5\libgcc.a(_copy_data.o)
                              .build/obj_atelier6k_default/quantum/quantum.o (__do_copy_data)
e:/qmk_msys/mingw64/bin/../lib/gcc/avr/8.4.0/avr5\libgcc.a(_clear_bss.o)
                              .build/obj_atelier6k_default/quantum/quantum.o (__do_clear_bss)
e:/qmk_msys/mingw64/bin/../lib/gcc/avr/8.4.0/avr5\libgcc.a(_bswapsi2.o)
                              .build/obj_atelier6k_default/quantum/via.o (__bswapsi2)
e:/qmk_msys/mingw64/bin/../lib/gcc/avr/8.4.0/avr5\libgcc.a(_mulhisi3.o)
                              .build/obj_atelier6k_default/quantum/rgblight/rgblight.o (__mulhisi3)
e:/qmk_msys/mingw64/bin/../lib/gcc/avr/8.4.0/avr5\libgcc.a(_umulhisi3.o)
                              .build/obj_atelier6k_default/quantum/rgblight/rgblight.o (__umulhisi3)
e:/qmk_msys/mingw64/bin/../lib/gcc/avr/8.4.0/avr5\libgcc.a(_usmulhisi3.o)
                              e:/qmk_msys/mingw64/bin/../lib/gcc/avr/8.4.0/avr5\libgcc.a(_mulhisi3.o) (__usmulhisi3_tail)
e:/qmk_msys/mingw64/bin/../lib/gcc/avr/8.4.0/avr5\libgcc.a(_muluhisi3.o)
                              .build/obj_atelier6k_default/quantum/rgblight/rgblight.o (__muluhisi3)
e:/qmk_msys/mingw64/bin/../lib/gcc/avr/8.4.0/avr5\libgcc.a(_mulshisi3.o)
                              .build/obj_atelier6k_default/quantum/rgblight/rgblight.o (__mulshisi3)
e:/qmk_msys/mingw64/bin/../lib/gcc/avr/8.4.0/avr5\libgcc.a(_prologue.o)
                              .build/obj_atelier6k_default/quantum/quantum.o (__prologue_saves__)
e:/qmk_msys/mingw64/bin/../lib/gcc/avr/8.4.0/avr5\libgcc.a(_epilogue.o)
                              .build/obj_atelier6k_default/quantum/quantum.o (__epilogue_restores__)
e:/qmk_msys/mingw64/bin/../lib/gcc/avr/8.4.0/avr5\libgcc.a(_udivmodqi4.o)
                              e:/qmk_msys/mingw64/bin/../lib/gcc/avr/8.4.0/avr5\libgcc.a(_divmodqi4.o) (__udivmodqi4)
e:/qmk_msys/mingw64/bin/../lib/gcc/avr/8.4.0/../../../../avr/lib/avr5\libc.a(memchr.o)
                              .build/obj_atelier6k_default/quantum/rgblight/rgblight.o (memchr)
e:/qmk_msys/mingw64/bin/../lib/gcc/avr/8.4.0/../../../../avr/lib/avr5\libc.a(memcmp.o)
                              .build/obj_atelier6k_default/quantum/action_util.o (memcmp)
e:/qmk_msys/mingw64/bin/../lib/gcc/avr/8.4.0/../../../../avr/lib/avr5\libatmega32u4.a(eerd_byte.o)
                              .build/obj_atelier6k_default/quantum/eeconfig.o (eeprom_read_byte)
e:/qmk_msys/mingw64/bin/../lib/gcc/avr/8.4.0/../../../../avr/lib/avr5\libatmega32u4.a(eerd_dword.o)
                              .build/obj_atelier6k_default/quantum/eeconfig.o (eeprom_read_dword)
e:/qmk_msys/mingw64/bin/../lib/gcc/avr/8.4.0/../../../../avr/lib/avr5\libatmega32u4.a(eerd_word.o)
                              .build/obj_atelier6k_default/quantum/eeconfig.o (eeprom_read_word)
e:/qmk_msys/mingw64/bin/../lib/gcc/avr/8.4.0/../../../../avr/lib/avr5\libatmega32u4.a(eeupd_byte.o)
                              .build/obj_atelier6k_default/quantum/eeconfig.o (eeprom_update_byte)
e:/qmk_msys/mingw64/bin/../lib/gcc/avr/8.4.0/../../../../avr/lib/avr5\libatmega32u4.a(eeupd_dword.o)
                              .build/obj_atelier6k_default/quantum/eeconfig.o (eeprom_update_dword)
e:/qmk_msys/mingw64/bin/../lib/gcc/avr/8.4.0/../../../../avr/lib/avr5\libatmega32u4.a(eeupd_word.o)
                              .build/obj_atelier6k_default/quantum/eeconfig.o (eeprom_update_word)
e:/qmk_msys/mingw64/bin/../lib/gcc/avr/8.4.0/../../../../avr/lib/avr5\libatmega32u4.a(eerd_block.o)
                              e:/qmk_msys/mingw64/bin/../lib/gcc/avr/8.4.0/../../../../avr/lib/avr5\libatmega32u4.a(eerd_dword.o) (eeprom_read_blraw)

Allocating common symbols
Common symbol       size              file

rgblight_config     0x5               .build/obj_atelier6k_default/quantum/rgblight/rgblight.o
USB_IsInitialized   0x1               .build/obj_atelier6k_default/lib/lufa/LUFA/Drivers/USB/Core/USBTask.o
keymap_config       0x2               .build/obj_atelier6k_default/quantum/bootmagic/magic.o
backlight_config    0x1               .build/obj_atelier6k_default/quantum/backlight/backlight.o
USB_DeviceState     0x1               .build/obj_atelier6k_default/lib/lufa/LUFA/Drivers/USB/Core/USBTask.o
USB_Device_ConfigurationNumber
                    0x1               .build/obj_atelier6k_default/lib/lufa/LUFA/Drivers/USB/Core/DeviceStandardReq.o
led                 0x18              .build/obj_atelier6k_default/quantum/rgblight/rgblight.o
raw_matrix          0x3               .build/obj_atelier6k_default/quantum/matrix_common.o
USB_Device_CurrentlySelfPowered
                    0x1               .build/obj_atelier6k_default/lib/lufa/LUFA/Drivers/USB/Core/DeviceStandardReq.o
matrix              0x3               .build/obj_atelier6k_default/quantum/matrix_common.o
USB_ControlRequest  0x8               .build/obj_atelier6k_default/lib/lufa/LUFA/Drivers/USB/Core/USBTask.o
tp_buttons          0x2               .build/obj_atelier6k_default/quantum/action.o
USB_Device_RemoteWakeupEnabled
                    0x1               .build/obj_atelier6k_default/lib/lufa/LUFA/Drivers/USB/Core/DeviceStandardReq.o
timer_count         0x4               .build/obj_atelier6k_default/platforms/avr/timer.o

Discarded input sections

 .data          0x0000000000000000        0x0 e:/qmk_msys/mingw64/bin/../lib/gcc/avr/8.4.0/../../../../avr/lib/avr5/crtatmega32u4.o
 .bss           0x0000000000000000        0x0 e:/qmk_msys/mingw64/bin/../lib/gcc/avr/8.4.0/../../../../avr/lib/avr5/crtatmega32u4.o
 .text          0x0000000000000000        0x0 .build/obj_atelier6k_default/keyboards/atelier6k/atelier6k.o
 .data          0x0000000000000000        0x0 .build/obj_atelier6k_default/keyboards/atelier6k/atelier6k.o
 .bss           0x0000000000000000        0x0 .build/obj_atelier6k_default/keyboards/atelier6k/atelier6k.o
 .debug_info    0x0000000000000000      0x9be .build/obj_atelier6k_default/keyboards/atelier6k/atelier6k.o
 .debug_abbrev  0x0000000000000000      0x1eb .build/obj_atelier6k_default/keyboards/atelier6k/atelier6k.o
 .debug_aranges
                0x0000000000000000       0x18 .build/obj_atelier6k_default/keyboards/atelier6k/atelier6k.o
 .debug_line    0x0000000000000000      0x242 .build/obj_atelier6k_default/keyboards/atelier6k/atelier6k.o
 .debug_str     0x0000000000000000      0x884 .build/obj_atelier6k_default/keyboards/atelier6k/atelier6k.o
 .comment       0x0000000000000000       0x12 .build/obj_atelier6k_default/keyboards/atelier6k/atelier6k.o
 .text          0x0000000000000000        0x0 .build/obj_atelier6k_default/.build/obj_atelier6k/src/default_keyboard.o
 .data          0x0000000000000000        0x0 .build/obj_atelier6k_default/.build/obj_atelier6k/src/default_keyboard.o
 .bss           0x0000000000000000        0x0 .build/obj_atelier6k_default/.build/obj_atelier6k/src/default_keyboard.o
 .debug_info    0x0000000000000000      0x9be .build/obj_atelier6k_default/.build/obj_atelier6k/src/default_keyboard.o
 .debug_abbrev  0x0000000000000000      0x1eb .build/obj_atelier6k_default/.build/obj_atelier6k/src/default_keyboard.o
 .debug_aranges
                0x0000000000000000       0x18 .build/obj_atelier6k_default/.build/obj_atelier6k/src/default_keyboard.o
 .debug_line    0x0000000000000000      0x242 .build/obj_atelier6k_default/.build/obj_atelier6k/src/default_keyboard.o
 .debug_str     0x0000000000000000      0x890 .build/obj_atelier6k_default/.build/obj_atelier6k/src/default_keyboard.o
 .comment       0x0000000000000000       0x12 .build/obj_atelier6k_default/.build/obj_atelier6k/src/default_keyboard.o
 .text          0x0000000000000000        0x0 .build/obj_atelier6k_default/keyboards/atelier6k/keymaps/default/keymap.o
 .data          0x0000000000000000        0x0 .build/obj_atelier6k_default/keyboards/atelier6k/keymaps/default/keymap.o
 .bss           0x0000000000000000        0x0 .build/obj_atelier6k_default/keyboards/atelier6k/keymaps/default/keymap.o
 .text          0x0000000000000000        0x0 .build/obj_atelier6k_default/quantum/quantum.o
 .data          0x0000000000000000        0x0 .build/obj_atelier6k_default/quantum/quantum.o
 .bss           0x0000000000000000        0x0 .build/obj_atelier6k_default/quantum/quantum.o
 .text.extract_mod_bits
                0x0000000000000000       0x62 .build/obj_atelier6k_default/quantum/quantum.o
 .text.do_code16
                0x0000000000000000       0x14 .build/obj_atelier6k_default/quantum/quantum.o
 .text.register_code16
                0x0000000000000000       0x2c .build/obj_atelier6k_default/quantum/quantum.o
 .text.unregister_code16
                0x0000000000000000       0x2c .build/obj_atelier6k_default/quantum/quantum.o
 .text.tap_code16
                0x0000000000000000       0x2e .build/obj_atelier6k_default/quantum/quantum.o
 .text.process_record_user
                0x0000000000000000        0x4 .build/obj_atelier6k_default/quantum/quantum.o
 .text.set_single_persistent_default_layer
                0x0000000000000000       0x22 .build/obj_atelier6k_default/quantum/quantum.o
 .text.startup_user
                0x0000000000000000        0x2 .build/obj_atelier6k_default/quantum/quantum.o
 .text.get_numeric_str
                0x0000000000000000       0xb0 .build/obj_atelier6k_default/quantum/quantum.o
 .text.get_u8_str
                0x0000000000000000       0x3a .build/obj_atelier6k_default/quantum/quantum.o
 .text.get_u16_str
                0x0000000000000000       0x42 .build/obj_atelier6k_default/quantum/quantum.o
 .bss.buf.6918  0x0000000000000000        0x6 .build/obj_atelier6k_default/quantum/quantum.o
 .bss.last_pad.6920
                0x0000000000000000        0x1 .build/obj_atelier6k_default/quantum/quantum.o
 .data.last_num.6919
                0x0000000000000000        0x2 .build/obj_atelier6k_default/quantum/quantum.o
 .bss.buf.6911  0x0000000000000000        0x4 .build/obj_atelier6k_default/quantum/quantum.o
 .bss.last_pad.6913
                0x0000000000000000        0x1 .build/obj_atelier6k_default/quantum/quantum.o
 .data.last_num.6912
                0x0000000000000000        0x1 .build/obj_atelier6k_default/quantum/quantum.o
 .text          0x0000000000000000        0x0 .build/obj_atelier6k_default/quantum/send_string.o
 .data          0x0000000000000000        0x0 .build/obj_atelier6k_default/quantum/send_string.o
 .bss           0x0000000000000000        0x0 .build/obj_atelier6k_default/quantum/send_string.o
 .text.send_string_with_delay_P
                0x0000000000000000       0xd0 .build/obj_atelier6k_default/quantum/send_string.o
 .text.send_string_P
                0x0000000000000000        0x8 .build/obj_atelier6k_default/quantum/send_string.o
 .text.send_nibble
                0x0000000000000000       0x16 .build/obj_atelier6k_default/quantum/send_string.o
 .text.send_byte
                0x0000000000000000       0x18 .build/obj_atelier6k_default/quantum/send_string.o
 .text.send_word
                0x0000000000000000       0x14 .build/obj_atelier6k_default/quantum/send_string.o
 .text.send_dword
                0x0000000000000000       0x1e .build/obj_atelier6k_default/quantum/send_string.o
 .text.tap_random_base64
                0x0000000000000000       0x58 .build/obj_atelier6k_default/quantum/send_string.o
 .text          0x0000000000000000        0x0 .build/obj_atelier6k_default/quantum/bitwise.o
 .data          0x0000000000000000        0x0 .build/obj_atelier6k_default/quantum/bitwise.o
 .bss           0x0000000000000000        0x0 .build/obj_atelier6k_default/quantum/bitwise.o
 .text.bitpop   0x0000000000000000       0x14 .build/obj_atelier6k_default/quantum/bitwise.o
 .text.bitpop16
                0x0000000000000000       0x18 .build/obj_atelier6k_default/quantum/bitwise.o
 .text.bitpop32
                0x0000000000000000       0x3a .build/obj_atelier6k_default/quantum/bitwise.o
 .text.biton    0x0000000000000000       0x22 .build/obj_atelier6k_default/quantum/bitwise.o
 .text.biton16  0x0000000000000000       0x48 .build/obj_atelier6k_default/quantum/bitwise.o
 .text.biton32  0x0000000000000000       0x9a .build/obj_atelier6k_default/quantum/bitwise.o
 .text.bitrev   0x0000000000000000       0x30 .build/obj_atelier6k_default/quantum/bitwise.o
 .text.bitrev16
                0x0000000000000000       0x1a .build/obj_atelier6k_default/quantum/bitwise.o
 .text.bitrev32
                0x0000000000000000       0x42 .build/obj_atelier6k_default/quantum/bitwise.o
 .debug_info    0x0000000000000000      0x309 .build/obj_atelier6k_default/quantum/bitwise.o
 .debug_abbrev  0x0000000000000000       0xea .build/obj_atelier6k_default/quantum/bitwise.o
 .debug_loc     0x0000000000000000      0x532 .build/obj_atelier6k_default/quantum/bitwise.o
 .debug_aranges
                0x0000000000000000       0x60 .build/obj_atelier6k_default/quantum/bitwise.o
 .debug_ranges  0x0000000000000000       0x50 .build/obj_atelier6k_default/quantum/bitwise.o
 .debug_line    0x0000000000000000      0x690 .build/obj_atelier6k_default/quantum/bitwise.o
 .debug_str     0x0000000000000000      0x1ec .build/obj_atelier6k_default/quantum/bitwise.o
 .comment       0x0000000000000000       0x12 .build/obj_atelier6k_default/quantum/bitwise.o
 .debug_frame   0x0000000000000000       0xec .build/obj_atelier6k_default/quantum/bitwise.o
 .text          0x0000000000000000        0x0 .build/obj_atelier6k_default/quantum/led.o
 .data          0x0000000000000000        0x0 .build/obj_atelier6k_default/quantum/led.o
 .bss           0x0000000000000000        0x0 .build/obj_atelier6k_default/quantum/led.o
 .text          0x0000000000000000        0x0 .build/obj_atelier6k_default/quantum/action.o
 .data          0x0000000000000000        0x0 .build/obj_atelier6k_default/quantum/action.o
 .bss           0x0000000000000000        0x0 .build/obj_atelier6k_default/quantum/action.o
 .text.process_record_quantum
                0x0000000000000000        0x4 .build/obj_atelier6k_default/quantum/action.o
 .text.pre_process_record_quantum
                0x0000000000000000        0x6 .build/obj_atelier6k_default/quantum/action.o
 .text.post_process_record_quantum
                0x0000000000000000        0x2 .build/obj_atelier6k_default/quantum/action.o
 .text.process_record_nocache
                0x0000000000000000       0x10 .build/obj_atelier6k_default/quantum/action.o
 .text.register_weak_mods
                0x0000000000000000        0xe .build/obj_atelier6k_default/quantum/action.o
 .text.unregister_weak_mods
                0x0000000000000000        0xe .build/obj_atelier6k_default/quantum/action.o
 .text.is_tap_key
                0x0000000000000000        0xa .build/obj_atelier6k_default/quantum/action.o
 .text.debug_action
                0x0000000000000000        0x2 .build/obj_atelier6k_default/quantum/action.o
 COMMON         0x0000000000000000        0x2 .build/obj_atelier6k_default/quantum/action.o
 .text          0x0000000000000000        0x0 .build/obj_atelier6k_default/quantum/action_layer.o
 .data          0x0000000000000000        0x0 .build/obj_atelier6k_default/quantum/action_layer.o
 .bss           0x0000000000000000        0x0 .build/obj_atelier6k_default/quantum/action_layer.o
 .text.layer_state_cmp
                0x0000000000000000       0x1e .build/obj_atelier6k_default/quantum/action_layer.o
 .text.layer_state_is
                0x0000000000000000        0xc .build/obj_atelier6k_default/quantum/action_layer.o
 .text          0x0000000000000000        0x0 .build/obj_atelier6k_default/quantum/action_tapping.o
 .data          0x0000000000000000        0x0 .build/obj_atelier6k_default/quantum/action_tapping.o
 .bss           0x0000000000000000        0x0 .build/obj_atelier6k_default/quantum/action_tapping.o
 .text          0x0000000000000000        0x0 .build/obj_atelier6k_default/quantum/action_util.o
 .data          0x0000000000000000        0x0 .build/obj_atelier6k_default/quantum/action_util.o
 .bss           0x0000000000000000        0x0 .build/obj_atelier6k_default/quantum/action_util.o
 .text.get_oneshot_locked_mods
                0x0000000000000000        0x6 .build/obj_atelier6k_default/quantum/action_util.o
 .text.has_oneshot_mods_timed_out
                0x0000000000000000        0x4 .build/obj_atelier6k_default/quantum/action_util.o
 .text.is_oneshot_enabled
                0x0000000000000000        0xc .build/obj_atelier6k_default/quantum/action_util.o
 .text.set_mods
                0x0000000000000000        0x6 .build/obj_atelier6k_default/quantum/action_util.o
 .text.get_weak_mods
                0x0000000000000000        0x6 .build/obj_atelier6k_default/quantum/action_util.o
 .text.set_weak_mods
                0x0000000000000000        0x6 .build/obj_atelier6k_default/quantum/action_util.o
 .text.oneshot_locked_mods_changed_user
                0x0000000000000000        0x2 .build/obj_atelier6k_default/quantum/action_util.o
 .text.oneshot_locked_mods_changed_kb
                0x0000000000000000        0x6 .build/obj_atelier6k_default/quantum/action_util.o
 .text.set_oneshot_locked_mods
                0x0000000000000000       0x12 .build/obj_atelier6k_default/quantum/action_util.o
 .text.clear_oneshot_locked_mods
                0x0000000000000000       0x14 .build/obj_atelier6k_default/quantum/action_util.o
 .text.add_oneshot_mods
                0x0000000000000000       0x18 .build/obj_atelier6k_default/quantum/action_util.o
 .text.del_oneshot_mods
                0x0000000000000000       0x18 .build/obj_atelier6k_default/quantum/action_util.o
 .text.has_anymod
                0x0000000000000000        0xa .build/obj_atelier6k_default/quantum/action_util.o
 .bss.oneshot_locked_mods
                0x0000000000000000        0x1 .build/obj_atelier6k_default/quantum/action_util.o
 .text          0x0000000000000000        0x0 .build/obj_atelier6k_default/quantum/eeconfig.o
 .data          0x0000000000000000        0x0 .build/obj_atelier6k_default/quantum/eeconfig.o
 .bss           0x0000000000000000        0x0 .build/obj_atelier6k_default/quantum/eeconfig.o
 .text.eeconfig_enable
                0x0000000000000000        0xe .build/obj_atelier6k_default/quantum/eeconfig.o
 .text.eeconfig_is_disabled
                0x0000000000000000       0x1a .build/obj_atelier6k_default/quantum/eeconfig.o
 .text.eeconfig_update_debug
                0x0000000000000000        0xc .build/obj_atelier6k_default/quantum/eeconfig.o
 .text.eeconfig_update_default_layer
                0x0000000000000000        0xc .build/obj_atelier6k_default/quantum/eeconfig.o
 .text.eeconfig_read_audio
                0x0000000000000000        0xa .build/obj_atelier6k_default/quantum/eeconfig.o
 .text.eeconfig_update_audio
                0x0000000000000000        0xc .build/obj_atelier6k_default/quantum/eeconfig.o
 .text.eeconfig_read_kb
                0x0000000000000000        0xa .build/obj_atelier6k_default/quantum/eeconfig.o
 .text.eeconfig_read_user
                0x0000000000000000        0xa .build/obj_atelier6k_default/quantum/eeconfig.o
 .text.eeconfig_read_haptic
                0x0000000000000000        0xa .build/obj_atelier6k_default/quantum/eeconfig.o
 .text.eeconfig_update_haptic
                0x0000000000000000        0xe .build/obj_atelier6k_default/quantum/eeconfig.o
 .text.eeconfig_read_handedness
                0x0000000000000000       0x14 .build/obj_atelier6k_default/quantum/eeconfig.o
 .text          0x0000000000000000        0x0 .build/obj_atelier6k_default/quantum/keyboard.o
 .data          0x0000000000000000        0x0 .build/obj_atelier6k_default/quantum/keyboard.o
 .bss           0x0000000000000000        0x0 .build/obj_atelier6k_default/quantum/keyboard.o
 .text.last_input_activity_time
                0x0000000000000000       0x12 .build/obj_atelier6k_default/quantum/keyboard.o
 .text.last_input_activity_elapsed
                0x0000000000000000       0x16 .build/obj_atelier6k_default/quantum/keyboard.o
 .text.last_matrix_activity_time
                0x0000000000000000       0x12 .build/obj_atelier6k_default/quantum/keyboard.o
 .text.last_matrix_activity_elapsed
                0x0000000000000000       0x16 .build/obj_atelier6k_default/quantum/keyboard.o
 .text.last_encoder_activity_time
                0x0000000000000000       0x12 .build/obj_atelier6k_default/quantum/keyboard.o
 .text.last_encoder_activity_elapsed
                0x0000000000000000       0x16 .build/obj_atelier6k_default/quantum/keyboard.o
 .text.last_encoder_activity_trigger
                0x0000000000000000       0x26 .build/obj_atelier6k_default/quantum/keyboard.o
 .text.is_keyboard_left
                0x0000000000000000        0x6 .build/obj_atelier6k_default/quantum/keyboard.o
 .text.switch_events
                0x0000000000000000        0x2 .build/obj_atelier6k_default/quantum/keyboard.o
 .text.quantum_task
                0x0000000000000000        0x2 .build/obj_atelier6k_default/quantum/keyboard.o
 .bss.last_encoder_modification_time
                0x0000000000000000        0x4 .build/obj_atelier6k_default/quantum/keyboard.o
 .text          0x0000000000000000        0x0 .build/obj_atelier6k_default/quantum/keymap_common.o
 .data          0x0000000000000000        0x0 .build/obj_atelier6k_default/quantum/keymap_common.o
 .bss           0x0000000000000000        0x0 .build/obj_atelier6k_default/quantum/keymap_common.o
 .text.keymap_key_to_keycode
                0x0000000000000000       0x36 .build/obj_atelier6k_default/quantum/keymap_common.o
 .text          0x0000000000000000        0x0 .build/obj_atelier6k_default/quantum/keycode_config.o
 .data          0x0000000000000000        0x0 .build/obj_atelier6k_default/quantum/keycode_config.o
 .bss           0x0000000000000000        0x0 .build/obj_atelier6k_default/quantum/keycode_config.o
 .text          0x0000000000000000        0x0 .build/obj_atelier6k_default/quantum/sync_timer.o
 .data          0x0000000000000000        0x0 .build/obj_atelier6k_default/quantum/sync_timer.o
 .bss           0x0000000000000000        0x0 .build/obj_atelier6k_default/quantum/sync_timer.o
 .debug_info    0x0000000000000000       0x7c .build/obj_atelier6k_default/quantum/sync_timer.o
 .debug_abbrev  0x0000000000000000       0x4f .build/obj_atelier6k_default/quantum/sync_timer.o
 .debug_aranges
                0x0000000000000000       0x18 .build/obj_atelier6k_default/quantum/sync_timer.o
 .debug_line    0x0000000000000000       0x5e .build/obj_atelier6k_default/quantum/sync_timer.o
 .debug_str     0x0000000000000000      0x1a3 .build/obj_atelier6k_default/quantum/sync_timer.o
 .comment       0x0000000000000000       0x12 .build/obj_atelier6k_default/quantum/sync_timer.o
 .text          0x0000000000000000        0x0 .build/obj_atelier6k_default/quantum/logging/debug.o
 .data          0x0000000000000000        0x0 .build/obj_atelier6k_default/quantum/logging/debug.o
 .bss           0x0000000000000000        0x0 .build/obj_atelier6k_default/quantum/logging/debug.o
 .text          0x0000000000000000        0x0 .build/obj_atelier6k_default/quantum/logging/sendchar.o
 .data          0x0000000000000000        0x0 .build/obj_atelier6k_default/quantum/logging/sendchar.o
 .bss           0x0000000000000000        0x0 .build/obj_atelier6k_default/quantum/logging/sendchar.o
 .text          0x0000000000000000        0x0 .build/obj_atelier6k_default/quantum/bootmagic/bootmagic_lite.o
 .data          0x0000000000000000        0x0 .build/obj_atelier6k_default/quantum/bootmagic/bootmagic_lite.o
 .bss           0x0000000000000000        0x0 .build/obj_atelier6k_default/quantum/bootmagic/bootmagic_lite.o
 .text          0x0000000000000000        0x0 .build/obj_atelier6k_default/quantum/bootmagic/magic.o
 .data          0x0000000000000000        0x0 .build/obj_atelier6k_default/quantum/bootmagic/magic.o
 .bss           0x0000000000000000        0x0 .build/obj_atelier6k_default/quantum/bootmagic/magic.o
 .text.bootmagic
                0x0000000000000000        0x2 .build/obj_atelier6k_default/quantum/bootmagic/magic.o
 .text          0x0000000000000000        0x0 .build/obj_atelier6k_default/quantum/matrix_common.o
 .data          0x0000000000000000        0x0 .build/obj_atelier6k_default/quantum/matrix_common.o
 .bss           0x0000000000000000        0x0 .build/obj_atelier6k_default/quantum/matrix_common.o
 .text.matrix_init_user
                0x0000000000000000        0x2 .build/obj_atelier6k_default/quantum/matrix_common.o
 .text.matrix_scan_user
                0x0000000000000000        0x2 .build/obj_atelier6k_default/quantum/matrix_common.o
 .text.matrix_rows
                0x0000000000000000        0x4 .build/obj_atelier6k_default/quantum/matrix_common.o
 .text.matrix_cols
                0x0000000000000000        0x4 .build/obj_atelier6k_default/quantum/matrix_common.o
 .text.matrix_is_on
                0x0000000000000000       0x28 .build/obj_atelier6k_default/quantum/matrix_common.o
 .text.matrix_init_custom
                0x0000000000000000        0x2 .build/obj_atelier6k_default/quantum/matrix_common.o
 .text.matrix_scan_custom
                0x0000000000000000        0x4 .build/obj_atelier6k_default/quantum/matrix_common.o
 .text.matrix_init
                0x0000000000000000       0x2a .build/obj_atelier6k_default/quantum/matrix_common.o
 .text.matrix_scan
                0x0000000000000000       0x26 .build/obj_atelier6k_default/quantum/matrix_common.o
 .text.peek_matrix
                0x0000000000000000       0x24 .build/obj_atelier6k_default/quantum/matrix_common.o
 .text          0x0000000000000000        0x0 .build/obj_atelier6k_default/quantum/matrix.o
 .data          0x0000000000000000        0x0 .build/obj_atelier6k_default/quantum/matrix.o
 .bss           0x0000000000000000        0x0 .build/obj_atelier6k_default/quantum/matrix.o
 .text          0x0000000000000000        0x0 .build/obj_atelier6k_default/quantum/debounce/sym_defer_g.o
 .data          0x0000000000000000        0x0 .build/obj_atelier6k_default/quantum/debounce/sym_defer_g.o
 .bss           0x0000000000000000        0x0 .build/obj_atelier6k_default/quantum/debounce/sym_defer_g.o
 .text.debounce_free
                0x0000000000000000        0x2 .build/obj_atelier6k_default/quantum/debounce/sym_defer_g.o
 .text          0x0000000000000000        0x0 .build/obj_atelier6k_default/quantum/main.o
 .data          0x0000000000000000        0x0 .build/obj_atelier6k_default/quantum/main.o
 .bss           0x0000000000000000        0x0 .build/obj_atelier6k_default/quantum/main.o
 .text          0x0000000000000000        0x0 .build/obj_atelier6k_default/quantum/mousekey.o
 .data          0x0000000000000000        0x0 .build/obj_atelier6k_default/quantum/mousekey.o
 .bss           0x0000000000000000        0x0 .build/obj_atelier6k_default/quantum/mousekey.o
 .text.mousekey_get_report
                0x0000000000000000       0x36 .build/obj_atelier6k_default/quantum/mousekey.o
 .text          0x0000000000000000        0x0 .build/obj_atelier6k_default/quantum/color.o
 .data          0x0000000000000000        0x0 .build/obj_atelier6k_default/quantum/color.o
 .bss           0x0000000000000000        0x0 .build/obj_atelier6k_default/quantum/color.o
 .text.hsv_to_rgb_nocie
                0x0000000000000000        0x8 .build/obj_atelier6k_default/quantum/color.o
 .text          0x0000000000000000        0x0 .build/obj_atelier6k_default/quantum/rgblight/rgblight.o
 .data          0x0000000000000000        0x0 .build/obj_atelier6k_default/quantum/rgblight/rgblight.o
 .bss           0x0000000000000000        0x0 .build/obj_atelier6k_default/quantum/rgblight/rgblight.o
 .text.rgblight_set_clipping_range
                0x0000000000000000        0xa .build/obj_atelier6k_default/quantum/rgblight/rgblight.o
 .text.rgblight_set_effect_range
                0x0000000000000000       0x22 .build/obj_atelier6k_default/quantum/rgblight/rgblight.o
 .text.sethsv   0x0000000000000000        0x6 .build/obj_atelier6k_default/quantum/rgblight/rgblight.o
 .text.setrgb   0x0000000000000000        0xc .build/obj_atelier6k_default/quantum/rgblight/rgblight.o
 .text.eeconfig_debug_rgblight
                0x0000000000000000        0x2 .build/obj_atelier6k_default/quantum/rgblight/rgblight.o
 .text.rgblight_read_dword
                0x0000000000000000       0x12 .build/obj_atelier6k_default/quantum/rgblight/rgblight.o
 .text.rgblight_is_enabled
                0x0000000000000000        0x8 .build/obj_atelier6k_default/quantum/rgblight/rgblight.o
 .text.rgblight_increase_speed_noeeprom
                0x0000000000000000        0x8 .build/obj_atelier6k_default/quantum/rgblight/rgblight.o
 .text.rgblight_decrease_speed_noeeprom
                0x0000000000000000        0x8 .build/obj_atelier6k_default/quantum/rgblight/rgblight.o
 .text.rgblight_set_speed
                0x0000000000000000        0x8 .build/obj_atelier6k_default/quantum/rgblight/rgblight.o
 .text.rgblight_get_hsv
                0x0000000000000000        0xc .build/obj_atelier6k_default/quantum/rgblight/rgblight.o
 .text.rgblight_increase_hue_noeeprom
                0x0000000000000000        0x8 .build/obj_atelier6k_default/quantum/rgblight/rgblight.o
 .text.rgblight_decrease_hue_noeeprom
                0x0000000000000000        0x8 .build/obj_atelier6k_default/quantum/rgblight/rgblight.o
 .text.rgblight_increase_sat_noeeprom
                0x0000000000000000        0x8 .build/obj_atelier6k_default/quantum/rgblight/rgblight.o
 .text.rgblight_decrease_sat_noeeprom
                0x0000000000000000        0x8 .build/obj_atelier6k_default/quantum/rgblight/rgblight.o
 .text.rgblight_increase_val_noeeprom
                0x0000000000000000        0x8 .build/obj_atelier6k_default/quantum/rgblight/rgblight.o
 .text.rgblight_decrease_val_noeeprom
                0x0000000000000000        0x8 .build/obj_atelier6k_default/quantum/rgblight/rgblight.o
 .text.rgblight_sethsv
                0x0000000000000000        0x8 .build/obj_atelier6k_default/quantum/rgblight/rgblight.o
 .text.rgblight_setrgb_at
                0x0000000000000000       0x26 .build/obj_atelier6k_default/quantum/rgblight/rgblight.o
 .text.rgblight_sethsv_at
                0x0000000000000000       0x34 .build/obj_atelier6k_default/quantum/rgblight/rgblight.o
 .text.rgblight_setrgb_range
                0x0000000000000000       0x42 .build/obj_atelier6k_default/quantum/rgblight/rgblight.o
 .text.rgblight_sethsv_range
                0x0000000000000000       0x34 .build/obj_atelier6k_default/quantum/rgblight/rgblight.o
 .text.rgblight_sethsv_master
                0x0000000000000000        0xe .build/obj_atelier6k_default/quantum/rgblight/rgblight.o
 .text.rgblight_sethsv_slave
                0x0000000000000000        0xe .build/obj_atelier6k_default/quantum/rgblight/rgblight.o
 .text.rgblight_setrgb_master
                0x0000000000000000        0xe .build/obj_atelier6k_default/quantum/rgblight/rgblight.o
 .text.rgblight_setrgb_slave
                0x0000000000000000        0xe .build/obj_atelier6k_default/quantum/rgblight/rgblight.o
 .text.rgblight_timer_init
                0x0000000000000000        0x6 .build/obj_atelier6k_default/quantum/rgblight/rgblight.o
 .text.rgblight_step_noeeprom
                0x0000000000000000        0x8 .build/obj_atelier6k_default/quantum/rgblight/rgblight.o
 .text.rgblight_step_reverse_noeeprom
                0x0000000000000000        0x8 .build/obj_atelier6k_default/quantum/rgblight/rgblight.o
 .text.rgblight_increase
                0x0000000000000000       0x16 .build/obj_atelier6k_default/quantum/rgblight/rgblight.o
 .text.rgblight_decrease
                0x0000000000000000       0x16 .build/obj_atelier6k_default/quantum/rgblight/rgblight.o
 .text.rgblight_reload_from_eeprom
                0x0000000000000000       0x28 .build/obj_atelier6k_default/quantum/rgblight/rgblight.o
 .text.rgblight_toggle_noeeprom
                0x0000000000000000       0x14 .build/obj_atelier6k_default/quantum/rgblight/rgblight.o
 .text.rgblight_update_dword
                0x0000000000000000       0x28 .build/obj_atelier6k_default/quantum/rgblight/rgblight.o
 .text.rgblight_timer_disable
                0x0000000000000000        0x6 .build/obj_atelier6k_default/quantum/rgblight/rgblight.o
 .text.rgblight_timer_toggle
                0x0000000000000000       0x14 .build/obj_atelier6k_default/quantum/rgblight/rgblight.o
 .text.rgblight_show_solid_color
                0x0000000000000000       0x28 .build/obj_atelier6k_default/quantum/rgblight/rgblight.o
 .text          0x0000000000000000        0x0 .build/obj_atelier6k_default/quantum/process_keycode/process_rgb.o
 .data          0x0000000000000000        0x0 .build/obj_atelier6k_default/quantum/process_keycode/process_rgb.o
 .bss           0x0000000000000000        0x0 .build/obj_atelier6k_default/quantum/process_keycode/process_rgb.o
 .text          0x0000000000000000        0x0 .build/obj_atelier6k_default/quantum/backlight/backlight.o
 .data          0x0000000000000000        0x0 .build/obj_atelier6k_default/quantum/backlight/backlight.o
 .bss           0x0000000000000000        0x0 .build/obj_atelier6k_default/quantum/backlight/backlight.o
 .text.is_backlight_enabled
                0x0000000000000000        0x8 .build/obj_atelier6k_default/quantum/backlight/backlight.o
 .text.backlight_init_ports
                0x0000000000000000        0x2 .build/obj_atelier6k_default/quantum/backlight/backlight.o
 .text.backlight_set
                0x0000000000000000        0x2 .build/obj_atelier6k_default/quantum/backlight/backlight.o
 .text.backlight_task
                0x0000000000000000        0x2 .build/obj_atelier6k_default/quantum/backlight/backlight.o
 .text          0x0000000000000000        0x0 .build/obj_atelier6k_default/quantum/process_keycode/process_backlight.o
 .data          0x0000000000000000        0x0 .build/obj_atelier6k_default/quantum/process_keycode/process_backlight.o
 .bss           0x0000000000000000        0x0 .build/obj_atelier6k_default/quantum/process_keycode/process_backlight.o
 .text          0x0000000000000000        0x0 .build/obj_atelier6k_default/quantum/backlight/backlight_driver_common.o
 .data          0x0000000000000000        0x0 .build/obj_atelier6k_default/quantum/backlight/backlight_driver_common.o
 .bss           0x0000000000000000        0x0 .build/obj_atelier6k_default/quantum/backlight/backlight_driver_common.o
 .text          0x0000000000000000        0x0 .build/obj_atelier6k_default/quantum/backlight/backlight_avr.o
 .data          0x0000000000000000        0x0 .build/obj_atelier6k_default/quantum/backlight/backlight_avr.o
 .bss           0x0000000000000000        0x0 .build/obj_atelier6k_default/quantum/backlight/backlight_avr.o
 .text          0x0000000000000000        0x0 .build/obj_atelier6k_default/ws2812.o
 .data          0x0000000000000000        0x0 .build/obj_atelier6k_default/ws2812.o
 .bss           0x0000000000000000        0x0 .build/obj_atelier6k_default/ws2812.o
 .text          0x0000000000000000        0x0 .build/obj_atelier6k_default/quantum/led_tables.o
 .data          0x0000000000000000        0x0 .build/obj_atelier6k_default/quantum/led_tables.o
 .bss           0x0000000000000000        0x0 .build/obj_atelier6k_default/quantum/led_tables.o
 .text          0x0000000000000000        0x0 .build/obj_atelier6k_default/quantum/via.o
 .data          0x0000000000000000        0x0 .build/obj_atelier6k_default/quantum/via.o
 .bss           0x0000000000000000        0x0 .build/obj_atelier6k_default/quantum/via.o
 .text          0x0000000000000000        0x0 .build/obj_atelier6k_default/quantum/process_keycode/process_magic.o
 .data          0x0000000000000000        0x0 .build/obj_atelier6k_default/quantum/process_keycode/process_magic.o
 .bss           0x0000000000000000        0x0 .build/obj_atelier6k_default/quantum/process_keycode/process_magic.o
 .text          0x0000000000000000        0x0 .build/obj_atelier6k_default/quantum/dynamic_keymap.o
 .data          0x0000000000000000        0x0 .build/obj_atelier6k_default/quantum/dynamic_keymap.o
 .bss           0x0000000000000000        0x0 .build/obj_atelier6k_default/quantum/dynamic_keymap.o
 .text          0x0000000000000000        0x0 .build/obj_atelier6k_default/quantum/process_keycode/process_grave_esc.o
 .data          0x0000000000000000        0x0 .build/obj_atelier6k_default/quantum/process_keycode/process_grave_esc.o
 .bss           0x0000000000000000        0x0 .build/obj_atelier6k_default/quantum/process_keycode/process_grave_esc.o
 .text          0x0000000000000000        0x0 .build/obj_atelier6k_default/quantum/process_keycode/process_space_cadet.o
 .data          0x0000000000000000        0x0 .build/obj_atelier6k_default/quantum/process_keycode/process_space_cadet.o
 .bss           0x0000000000000000        0x0 .build/obj_atelier6k_default/quantum/process_keycode/process_space_cadet.o
 .text          0x0000000000000000      0x15c .build/obj_atelier6k_default/platforms/avr/xprintf.o
 .data          0x0000000000000000        0x0 .build/obj_atelier6k_default/platforms/avr/xprintf.o
 .text          0x0000000000000000        0x0 .build/obj_atelier6k_default/platforms/avr/printf.o
 .data          0x0000000000000000        0x0 .build/obj_atelier6k_default/platforms/avr/printf.o
 .bss           0x0000000000000000        0x0 .build/obj_atelier6k_default/platforms/avr/printf.o
 .text          0x0000000000000000        0x0 .build/obj_atelier6k_default/protocol/host.o
 .data          0x0000000000000000        0x0 .build/obj_atelier6k_default/protocol/host.o
 .bss           0x0000000000000000        0x0 .build/obj_atelier6k_default/protocol/host.o
 .text.host_get_driver
                0x0000000000000000        0xa .build/obj_atelier6k_default/protocol/host.o
 .text.host_keyboard_led_state
                0x0000000000000000        0x6 .build/obj_atelier6k_default/protocol/host.o
 .text.send_digitizer
                0x0000000000000000        0x2 .build/obj_atelier6k_default/protocol/host.o
 .text.host_digitizer_send
                0x0000000000000000       0x72 .build/obj_atelier6k_default/protocol/host.o
 .text.host_programmable_button_send
                0x0000000000000000       0x48 .build/obj_atelier6k_default/protocol/host.o
 .text.host_last_system_report
                0x0000000000000000        0xa .build/obj_atelier6k_default/protocol/host.o
 .text.host_last_consumer_report
                0x0000000000000000        0xa .build/obj_atelier6k_default/protocol/host.o
 .text.host_last_programmable_button_report
                0x0000000000000000       0x12 .build/obj_atelier6k_default/protocol/host.o
 .bss.last_programmable_button_report
                0x0000000000000000        0x4 .build/obj_atelier6k_default/protocol/host.o
 .text          0x0000000000000000        0x0 .build/obj_atelier6k_default/protocol/report.o
 .data          0x0000000000000000        0x0 .build/obj_atelier6k_default/protocol/report.o
 .bss           0x0000000000000000        0x0 .build/obj_atelier6k_default/protocol/report.o
 .text.get_first_key
                0x0000000000000000       0x4a .build/obj_atelier6k_default/protocol/report.o
 .text          0x0000000000000000        0x0 .build/obj_atelier6k_default/protocol/usb_device_state.o
 .data          0x0000000000000000        0x0 .build/obj_atelier6k_default/protocol/usb_device_state.o
 .bss           0x0000000000000000        0x0 .build/obj_atelier6k_default/protocol/usb_device_state.o
 .text          0x0000000000000000        0x0 .build/obj_atelier6k_default/protocol/usb_util.o
 .data          0x0000000000000000        0x0 .build/obj_atelier6k_default/protocol/usb_util.o
 .bss           0x0000000000000000        0x0 .build/obj_atelier6k_default/protocol/usb_util.o
 .text.usb_disconnect
                0x0000000000000000        0x2 .build/obj_atelier6k_default/protocol/usb_util.o
 .text.usb_connected_state
                0x0000000000000000        0x4 .build/obj_atelier6k_default/protocol/usb_util.o
 .text.usb_vbus_state
                0x0000000000000000        0x4 .build/obj_atelier6k_default/protocol/usb_util.o
 .debug_info    0x0000000000000000      0xa10 .build/obj_atelier6k_default/protocol/usb_util.o
 .debug_abbrev  0x0000000000000000      0x243 .build/obj_atelier6k_default/protocol/usb_util.o
 .debug_aranges
                0x0000000000000000       0x28 .build/obj_atelier6k_default/protocol/usb_util.o
 .debug_ranges  0x0000000000000000       0x18 .build/obj_atelier6k_default/protocol/usb_util.o
 .debug_line    0x0000000000000000      0x296 .build/obj_atelier6k_default/protocol/usb_util.o
 .debug_str     0x0000000000000000      0x8b3 .build/obj_atelier6k_default/protocol/usb_util.o
 .comment       0x0000000000000000       0x12 .build/obj_atelier6k_default/protocol/usb_util.o
 .debug_frame   0x0000000000000000       0x44 .build/obj_atelier6k_default/protocol/usb_util.o
 .text          0x0000000000000000        0x0 .build/obj_atelier6k_default/platforms/suspend.o
 .data          0x0000000000000000        0x0 .build/obj_atelier6k_default/platforms/suspend.o
 .bss           0x0000000000000000        0x0 .build/obj_atelier6k_default/platforms/suspend.o
 .text          0x0000000000000000        0x0 .build/obj_atelier6k_default/platforms/avr/hardware_id.o
 .data          0x0000000000000000        0x0 .build/obj_atelier6k_default/platforms/avr/hardware_id.o
 .bss           0x0000000000000000        0x0 .build/obj_atelier6k_default/platforms/avr/hardware_id.o
 .text.get_hardware_id
                0x0000000000000000       0x4e .build/obj_atelier6k_default/platforms/avr/hardware_id.o
 .debug_info    0x0000000000000000      0x11b .build/obj_atelier6k_default/platforms/avr/hardware_id.o
 .debug_abbrev  0x0000000000000000       0xcb .build/obj_atelier6k_default/platforms/avr/hardware_id.o
 .debug_loc     0x0000000000000000       0x79 .build/obj_atelier6k_default/platforms/avr/hardware_id.o
 .debug_aranges
                0x0000000000000000       0x20 .build/obj_atelier6k_default/platforms/avr/hardware_id.o
 .debug_ranges  0x0000000000000000       0x40 .build/obj_atelier6k_default/platforms/avr/hardware_id.o
 .debug_line    0x0000000000000000      0x15c .build/obj_atelier6k_default/platforms/avr/hardware_id.o
 .debug_str     0x0000000000000000      0x1d5 .build/obj_atelier6k_default/platforms/avr/hardware_id.o
 .comment       0x0000000000000000       0x12 .build/obj_atelier6k_default/platforms/avr/hardware_id.o
 .debug_frame   0x0000000000000000       0x2c .build/obj_atelier6k_default/platforms/avr/hardware_id.o
 .text          0x0000000000000000        0x0 .build/obj_atelier6k_default/platforms/avr/platform.o
 .data          0x0000000000000000        0x0 .build/obj_atelier6k_default/platforms/avr/platform.o
 .bss           0x0000000000000000        0x0 .build/obj_atelier6k_default/platforms/avr/platform.o
 .text          0x0000000000000000        0x0 .build/obj_atelier6k_default/platforms/avr/suspend.o
 .data          0x0000000000000000        0x0 .build/obj_atelier6k_default/platforms/avr/suspend.o
 .bss           0x0000000000000000        0x0 .build/obj_atelier6k_default/platforms/avr/suspend.o
 .text          0x0000000000000000        0x0 .build/obj_atelier6k_default/platforms/avr/timer.o
 .data          0x0000000000000000        0x0 .build/obj_atelier6k_default/platforms/avr/timer.o
 .bss           0x0000000000000000        0x0 .build/obj_atelier6k_default/platforms/avr/timer.o
 .text.timer_clear
                0x0000000000000000       0x18 .build/obj_atelier6k_default/platforms/avr/timer.o
 .text.timer_elapsed32
                0x0000000000000000       0x38 .build/obj_atelier6k_default/platforms/avr/timer.o
 .text          0x0000000000000000        0x0 .build/obj_atelier6k_default/platforms/avr/bootloaders/dfu.o
 .data          0x0000000000000000        0x0 .build/obj_atelier6k_default/platforms/avr/bootloaders/dfu.o
 .bss           0x0000000000000000        0x0 .build/obj_atelier6k_default/platforms/avr/bootloaders/dfu.o
 .text          0x0000000000000000        0x0 .build/obj_atelier6k_default/lufa.o
 .data          0x0000000000000000        0x0 .build/obj_atelier6k_default/lufa.o
 .bss           0x0000000000000000        0x0 .build/obj_atelier6k_default/lufa.o
 .text.raw_hid_receive
                0x0000000000000000        0x2 .build/obj_atelier6k_default/lufa.o
 .text.send_digitizer
                0x0000000000000000        0x2 .build/obj_atelier6k_default/lufa.o
 .text          0x0000000000000000        0x0 .build/obj_atelier6k_default/usb_descriptor.o
 .data          0x0000000000000000        0x0 .build/obj_atelier6k_default/usb_descriptor.o
 .bss           0x0000000000000000        0x0 .build/obj_atelier6k_default/usb_descriptor.o
 .text          0x0000000000000000        0x0 .build/obj_atelier6k_default/lib/lufa/LUFA/Drivers/USB/Class/Common/HIDParser.o
 .data          0x0000000000000000        0x0 .build/obj_atelier6k_default/lib/lufa/LUFA/Drivers/USB/Class/Common/HIDParser.o
 .bss           0x0000000000000000        0x0 .build/obj_atelier6k_default/lib/lufa/LUFA/Drivers/USB/Class/Common/HIDParser.o
 .text.USB_ProcessHIDReport
                0x0000000000000000      0x670 .build/obj_atelier6k_default/lib/lufa/LUFA/Drivers/USB/Class/Common/HIDParser.o
 .text.USB_GetHIDReportItemInfo
                0x0000000000000000       0xc0 .build/obj_atelier6k_default/lib/lufa/LUFA/Drivers/USB/Class/Common/HIDParser.o
 .text.USB_SetHIDReportItemInfo
                0x0000000000000000       0xb6 .build/obj_atelier6k_default/lib/lufa/LUFA/Drivers/USB/Class/Common/HIDParser.o
 .text.USB_GetHIDReportSize
                0x0000000000000000       0x52 .build/obj_atelier6k_default/lib/lufa/LUFA/Drivers/USB/Class/Common/HIDParser.o
 .debug_info    0x0000000000000000      0x803 .build/obj_atelier6k_default/lib/lufa/LUFA/Drivers/USB/Class/Common/HIDParser.o
 .debug_abbrev  0x0000000000000000      0x253 .build/obj_atelier6k_default/lib/lufa/LUFA/Drivers/USB/Class/Common/HIDParser.o
 .debug_loc     0x0000000000000000      0xbe5 .build/obj_atelier6k_default/lib/lufa/LUFA/Drivers/USB/Class/Common/HIDParser.o
 .debug_aranges
                0x0000000000000000       0x38 .build/obj_atelier6k_default/lib/lufa/LUFA/Drivers/USB/Class/Common/HIDParser.o
 .debug_ranges  0x0000000000000000      0x100 .build/obj_atelier6k_default/lib/lufa/LUFA/Drivers/USB/Class/Common/HIDParser.o
 .debug_line    0x0000000000000000      0xe3d .build/obj_atelier6k_default/lib/lufa/LUFA/Drivers/USB/Class/Common/HIDParser.o
 .debug_str     0x0000000000000000      0x6bf .build/obj_atelier6k_default/lib/lufa/LUFA/Drivers/USB/Class/Common/HIDParser.o
 .comment       0x0000000000000000       0x12 .build/obj_atelier6k_default/lib/lufa/LUFA/Drivers/USB/Class/Common/HIDParser.o
 .debug_frame   0x0000000000000000       0xdc .build/obj_atelier6k_default/lib/lufa/LUFA/Drivers/USB/Class/Common/HIDParser.o
 .text          0x0000000000000000        0x0 .build/obj_atelier6k_default/lib/lufa/LUFA/Drivers/USB/Core/AVR8/Device_AVR8.o
 .data          0x0000000000000000        0x0 .build/obj_atelier6k_default/lib/lufa/LUFA/Drivers/USB/Core/AVR8/Device_AVR8.o
 .bss           0x0000000000000000        0x0 .build/obj_atelier6k_default/lib/lufa/LUFA/Drivers/USB/Core/AVR8/Device_AVR8.o
 .text          0x0000000000000000        0x0 .build/obj_atelier6k_default/lib/lufa/LUFA/Drivers/USB/Core/AVR8/EndpointStream_AVR8.o
 .data          0x0000000000000000        0x0 .build/obj_atelier6k_default/lib/lufa/LUFA/Drivers/USB/Core/AVR8/EndpointStream_AVR8.o
 .bss           0x0000000000000000        0x0 .build/obj_atelier6k_default/lib/lufa/LUFA/Drivers/USB/Core/AVR8/EndpointStream_AVR8.o
 .text.Endpoint_Discard_Stream
                0x0000000000000000       0x78 .build/obj_atelier6k_default/lib/lufa/LUFA/Drivers/USB/Core/AVR8/EndpointStream_AVR8.o
 .text.Endpoint_Null_Stream
                0x0000000000000000       0x78 .build/obj_atelier6k_default/lib/lufa/LUFA/Drivers/USB/Core/AVR8/EndpointStream_AVR8.o
 .text.Endpoint_Write_Stream_BE
                0x0000000000000000       0xa8 .build/obj_atelier6k_default/lib/lufa/LUFA/Drivers/USB/Core/AVR8/EndpointStream_AVR8.o
 .text.Endpoint_Read_Stream_BE
                0x0000000000000000       0xa8 .build/obj_atelier6k_default/lib/lufa/LUFA/Drivers/USB/Core/AVR8/EndpointStream_AVR8.o
 .text.Endpoint_Write_PStream_LE
                0x0000000000000000       0xa0 .build/obj_atelier6k_default/lib/lufa/LUFA/Drivers/USB/Core/AVR8/EndpointStream_AVR8.o
 .text.Endpoint_Write_PStream_BE
                0x0000000000000000       0xaa .build/obj_atelier6k_default/lib/lufa/LUFA/Drivers/USB/Core/AVR8/EndpointStream_AVR8.o
 .text.Endpoint_Write_EStream_LE
                0x0000000000000000       0xa2 .build/obj_atelier6k_default/lib/lufa/LUFA/Drivers/USB/Core/AVR8/EndpointStream_AVR8.o
 .text.Endpoint_Write_EStream_BE
                0x0000000000000000       0xac .build/obj_atelier6k_default/lib/lufa/LUFA/Drivers/USB/Core/AVR8/EndpointStream_AVR8.o
 .text.Endpoint_Read_EStream_LE
                0x0000000000000000       0xa2 .build/obj_atelier6k_default/lib/lufa/LUFA/Drivers/USB/Core/AVR8/EndpointStream_AVR8.o
 .text.Endpoint_Read_EStream_BE
                0x0000000000000000       0xac .build/obj_atelier6k_default/lib/lufa/LUFA/Drivers/USB/Core/AVR8/EndpointStream_AVR8.o
 .text.Endpoint_Write_Control_Stream_BE
                0x0000000000000000       0xc6 .build/obj_atelier6k_default/lib/lufa/LUFA/Drivers/USB/Core/AVR8/EndpointStream_AVR8.o
 .text.Endpoint_Read_Control_Stream_LE
                0x0000000000000000       0x74 .build/obj_atelier6k_default/lib/lufa/LUFA/Drivers/USB/Core/AVR8/EndpointStream_AVR8.o
 .text.Endpoint_Read_Control_Stream_BE
                0x0000000000000000       0x7e .build/obj_atelier6k_default/lib/lufa/LUFA/Drivers/USB/Core/AVR8/EndpointStream_AVR8.o
 .text.Endpoint_Write_Control_PStream_BE
                0x0000000000000000       0xc2 .build/obj_atelier6k_default/lib/lufa/LUFA/Drivers/USB/Core/AVR8/EndpointStream_AVR8.o
 .text.Endpoint_Write_Control_EStream_LE
                0x0000000000000000       0xd4 .build/obj_atelier6k_default/lib/lufa/LUFA/Drivers/USB/Core/AVR8/EndpointStream_AVR8.o
 .text.Endpoint_Write_Control_EStream_BE
                0x0000000000000000       0xde .build/obj_atelier6k_default/lib/lufa/LUFA/Drivers/USB/Core/AVR8/EndpointStream_AVR8.o
 .text.Endpoint_Read_Control_EStream_LE
                0x0000000000000000       0x86 .build/obj_atelier6k_default/lib/lufa/LUFA/Drivers/USB/Core/AVR8/EndpointStream_AVR8.o
 .text.Endpoint_Read_Control_EStream_BE
                0x0000000000000000       0x8e .build/obj_atelier6k_default/lib/lufa/LUFA/Drivers/USB/Core/AVR8/EndpointStream_AVR8.o
 .text          0x0000000000000000        0x0 .build/obj_atelier6k_default/lib/lufa/LUFA/Drivers/USB/Core/AVR8/Endpoint_AVR8.o
 .data          0x0000000000000000        0x0 .build/obj_atelier6k_default/lib/lufa/LUFA/Drivers/USB/Core/AVR8/Endpoint_AVR8.o
 .bss           0x0000000000000000        0x0 .build/obj_atelier6k_default/lib/lufa/LUFA/Drivers/USB/Core/AVR8/Endpoint_AVR8.o
 .text.Endpoint_ConfigureEndpointTable
                0x0000000000000000       0x7a .build/obj_atelier6k_default/lib/lufa/LUFA/Drivers/USB/Core/AVR8/Endpoint_AVR8.o
 .text.Endpoint_ClearEndpoints
                0x0000000000000000       0x28 .build/obj_atelier6k_default/lib/lufa/LUFA/Drivers/USB/Core/AVR8/Endpoint_AVR8.o
 .text          0x0000000000000000        0x0 .build/obj_atelier6k_default/lib/lufa/LUFA/Drivers/USB/Core/AVR8/Host_AVR8.o
 .data          0x0000000000000000        0x0 .build/obj_atelier6k_default/lib/lufa/LUFA/Drivers/USB/Core/AVR8/Host_AVR8.o
 .bss           0x0000000000000000        0x0 .build/obj_atelier6k_default/lib/lufa/LUFA/Drivers/USB/Core/AVR8/Host_AVR8.o
 .debug_info    0x0000000000000000       0x56 .build/obj_atelier6k_default/lib/lufa/LUFA/Drivers/USB/Core/AVR8/Host_AVR8.o
 .debug_abbrev  0x0000000000000000       0x26 .build/obj_atelier6k_default/lib/lufa/LUFA/Drivers/USB/Core/AVR8/Host_AVR8.o
 .debug_aranges
                0x0000000000000000       0x18 .build/obj_atelier6k_default/lib/lufa/LUFA/Drivers/USB/Core/AVR8/Host_AVR8.o
 .debug_line    0x0000000000000000       0x1d .build/obj_atelier6k_default/lib/lufa/LUFA/Drivers/USB/Core/AVR8/Host_AVR8.o
 .debug_str     0x0000000000000000      0x1a3 .build/obj_atelier6k_default/lib/lufa/LUFA/Drivers/USB/Core/AVR8/Host_AVR8.o
 .comment       0x0000000000000000       0x12 .build/obj_atelier6k_default/lib/lufa/LUFA/Drivers/USB/Core/AVR8/Host_AVR8.o
 .text          0x0000000000000000        0x0 .build/obj_atelier6k_default/lib/lufa/LUFA/Drivers/USB/Core/AVR8/PipeStream_AVR8.o
 .data          0x0000000000000000        0x0 .build/obj_atelier6k_default/lib/lufa/LUFA/Drivers/USB/Core/AVR8/PipeStream_AVR8.o
 .bss           0x0000000000000000        0x0 .build/obj_atelier6k_default/lib/lufa/LUFA/Drivers/USB/Core/AVR8/PipeStream_AVR8.o
 .debug_info    0x0000000000000000       0x56 .build/obj_atelier6k_default/lib/lufa/LUFA/Drivers/USB/Core/AVR8/PipeStream_AVR8.o
 .debug_abbrev  0x0000000000000000       0x26 .build/obj_atelier6k_default/lib/lufa/LUFA/Drivers/USB/Core/AVR8/PipeStream_AVR8.o
 .debug_aranges
                0x0000000000000000       0x18 .build/obj_atelier6k_default/lib/lufa/LUFA/Drivers/USB/Core/AVR8/PipeStream_AVR8.o
 .debug_line    0x0000000000000000       0x1d .build/obj_atelier6k_default/lib/lufa/LUFA/Drivers/USB/Core/AVR8/PipeStream_AVR8.o
 .debug_str     0x0000000000000000      0x1a9 .build/obj_atelier6k_default/lib/lufa/LUFA/Drivers/USB/Core/AVR8/PipeStream_AVR8.o
 .comment       0x0000000000000000       0x12 .build/obj_atelier6k_default/lib/lufa/LUFA/Drivers/USB/Core/AVR8/PipeStream_AVR8.o
 .text          0x0000000000000000        0x0 .build/obj_atelier6k_default/lib/lufa/LUFA/Drivers/USB/Core/AVR8/Pipe_AVR8.o
 .data          0x0000000000000000        0x0 .build/obj_atelier6k_default/lib/lufa/LUFA/Drivers/USB/Core/AVR8/Pipe_AVR8.o
 .bss           0x0000000000000000        0x0 .build/obj_atelier6k_default/lib/lufa/LUFA/Drivers/USB/Core/AVR8/Pipe_AVR8.o
 .debug_info    0x0000000000000000       0x56 .build/obj_atelier6k_default/lib/lufa/LUFA/Drivers/USB/Core/AVR8/Pipe_AVR8.o
 .debug_abbrev  0x0000000000000000       0x26 .build/obj_atelier6k_default/lib/lufa/LUFA/Drivers/USB/Core/AVR8/Pipe_AVR8.o
 .debug_aranges
                0x0000000000000000       0x18 .build/obj_atelier6k_default/lib/lufa/LUFA/Drivers/USB/Core/AVR8/Pipe_AVR8.o
 .debug_line    0x0000000000000000       0x1d .build/obj_atelier6k_default/lib/lufa/LUFA/Drivers/USB/Core/AVR8/Pipe_AVR8.o
 .debug_str     0x0000000000000000      0x1a3 .build/obj_atelier6k_default/lib/lufa/LUFA/Drivers/USB/Core/AVR8/Pipe_AVR8.o
 .comment       0x0000000000000000       0x12 .build/obj_atelier6k_default/lib/lufa/LUFA/Drivers/USB/Core/AVR8/Pipe_AVR8.o
 .text          0x0000000000000000        0x0 .build/obj_atelier6k_default/lib/lufa/LUFA/Drivers/USB/Core/AVR8/USBController_AVR8.o
 .data          0x0000000000000000        0x0 .build/obj_atelier6k_default/lib/lufa/LUFA/Drivers/USB/Core/AVR8/USBController_AVR8.o
 .bss           0x0000000000000000        0x0 .build/obj_atelier6k_default/lib/lufa/LUFA/Drivers/USB/Core/AVR8/USBController_AVR8.o
 .text          0x0000000000000000        0x0 .build/obj_atelier6k_default/lib/lufa/LUFA/Drivers/USB/Core/AVR8/USBInterrupt_AVR8.o
 .data          0x0000000000000000        0x0 .build/obj_atelier6k_default/lib/lufa/LUFA/Drivers/USB/Core/AVR8/USBInterrupt_AVR8.o
 .bss           0x0000000000000000        0x0 .build/obj_atelier6k_default/lib/lufa/LUFA/Drivers/USB/Core/AVR8/USBInterrupt_AVR8.o
 .text          0x0000000000000000        0x0 .build/obj_atelier6k_default/lib/lufa/LUFA/Drivers/USB/Core/ConfigDescriptors.o
 .data          0x0000000000000000        0x0 .build/obj_atelier6k_default/lib/lufa/LUFA/Drivers/USB/Core/ConfigDescriptors.o
 .bss           0x0000000000000000        0x0 .build/obj_atelier6k_default/lib/lufa/LUFA/Drivers/USB/Core/ConfigDescriptors.o
 .text.USB_GetNextDescriptor
                0x0000000000000000       0x3c .build/obj_atelier6k_default/lib/lufa/LUFA/Drivers/USB/Core/ConfigDescriptors.o
 .text.USB_GetNextDescriptorOfType
                0x0000000000000000       0x36 .build/obj_atelier6k_default/lib/lufa/LUFA/Drivers/USB/Core/ConfigDescriptors.o
 .text.USB_GetNextDescriptorOfTypeBefore
                0x0000000000000000       0x42 .build/obj_atelier6k_default/lib/lufa/LUFA/Drivers/USB/Core/ConfigDescriptors.o
 .text.USB_GetNextDescriptorOfTypeAfter
                0x0000000000000000       0x32 .build/obj_atelier6k_default/lib/lufa/LUFA/Drivers/USB/Core/ConfigDescriptors.o
 .text.USB_GetNextDescriptorComp
                0x0000000000000000       0x52 .build/obj_atelier6k_default/lib/lufa/LUFA/Drivers/USB/Core/ConfigDescriptors.o
 .debug_info    0x0000000000000000      0x50b .build/obj_atelier6k_default/lib/lufa/LUFA/Drivers/USB/Core/ConfigDescriptors.o
 .debug_abbrev  0x0000000000000000      0x1d7 .build/obj_atelier6k_default/lib/lufa/LUFA/Drivers/USB/Core/ConfigDescriptors.o
 .debug_loc     0x0000000000000000      0x47a .build/obj_atelier6k_default/lib/lufa/LUFA/Drivers/USB/Core/ConfigDescriptors.o
 .debug_aranges
                0x0000000000000000       0x40 .build/obj_atelier6k_default/lib/lufa/LUFA/Drivers/USB/Core/ConfigDescriptors.o
 .debug_ranges  0x0000000000000000       0x30 .build/obj_atelier6k_default/lib/lufa/LUFA/Drivers/USB/Core/ConfigDescriptors.o
 .debug_line    0x0000000000000000      0x396 .build/obj_atelier6k_default/lib/lufa/LUFA/Drivers/USB/Core/ConfigDescriptors.o
 .debug_str     0x0000000000000000      0x4db .build/obj_atelier6k_default/lib/lufa/LUFA/Drivers/USB/Core/ConfigDescriptors.o
 .comment       0x0000000000000000       0x12 .build/obj_atelier6k_default/lib/lufa/LUFA/Drivers/USB/Core/ConfigDescriptors.o
 .debug_frame   0x0000000000000000       0xe0 .build/obj_atelier6k_default/lib/lufa/LUFA/Drivers/USB/Core/ConfigDescriptors.o
 .text          0x0000000000000000        0x0 .build/obj_atelier6k_default/lib/lufa/LUFA/Drivers/USB/Core/DeviceStandardReq.o
 .data          0x0000000000000000        0x0 .build/obj_atelier6k_default/lib/lufa/LUFA/Drivers/USB/Core/DeviceStandardReq.o
 .bss           0x0000000000000000        0x0 .build/obj_atelier6k_default/lib/lufa/LUFA/Drivers/USB/Core/DeviceStandardReq.o
 .text          0x0000000000000000        0x0 .build/obj_atelier6k_default/lib/lufa/LUFA/Drivers/USB/Core/Events.o
 .data          0x0000000000000000        0x0 .build/obj_atelier6k_default/lib/lufa/LUFA/Drivers/USB/Core/Events.o
 .bss           0x0000000000000000        0x0 .build/obj_atelier6k_default/lib/lufa/LUFA/Drivers/USB/Core/Events.o
 .text.USB_Event_Stub_2
                0x0000000000000000        0x2 .build/obj_atelier6k_default/lib/lufa/LUFA/Drivers/USB/Core/Events.o
 .text.USB_Event_Stub_3
                0x0000000000000000        0x2 .build/obj_atelier6k_default/lib/lufa/LUFA/Drivers/USB/Core/Events.o
 .text          0x0000000000000000        0x0 .build/obj_atelier6k_default/lib/lufa/LUFA/Drivers/USB/Core/HostStandardReq.o
 .data          0x0000000000000000        0x0 .build/obj_atelier6k_default/lib/lufa/LUFA/Drivers/USB/Core/HostStandardReq.o
 .bss           0x0000000000000000        0x0 .build/obj_atelier6k_default/lib/lufa/LUFA/Drivers/USB/Core/HostStandardReq.o
 .debug_info    0x0000000000000000       0x56 .build/obj_atelier6k_default/lib/lufa/LUFA/Drivers/USB/Core/HostStandardReq.o
 .debug_abbrev  0x0000000000000000       0x26 .build/obj_atelier6k_default/lib/lufa/LUFA/Drivers/USB/Core/HostStandardReq.o
 .debug_aranges
                0x0000000000000000       0x18 .build/obj_atelier6k_default/lib/lufa/LUFA/Drivers/USB/Core/HostStandardReq.o
 .debug_line    0x0000000000000000       0x1d .build/obj_atelier6k_default/lib/lufa/LUFA/Drivers/USB/Core/HostStandardReq.o
 .debug_str     0x0000000000000000      0x1a4 .build/obj_atelier6k_default/lib/lufa/LUFA/Drivers/USB/Core/HostStandardReq.o
 .comment       0x0000000000000000       0x12 .build/obj_atelier6k_default/lib/lufa/LUFA/Drivers/USB/Core/HostStandardReq.o
 .text          0x0000000000000000        0x0 .build/obj_atelier6k_default/lib/lufa/LUFA/Drivers/USB/Core/USBTask.o
 .data          0x0000000000000000        0x0 .build/obj_atelier6k_default/lib/lufa/LUFA/Drivers/USB/Core/USBTask.o
 .bss           0x0000000000000000        0x0 .build/obj_atelier6k_default/lib/lufa/LUFA/Drivers/USB/Core/USBTask.o
 .text          0x0000000000000000        0x0 .build/obj_atelier6k_default/protocol/lufa/usb_util.o
 .data          0x0000000000000000        0x0 .build/obj_atelier6k_default/protocol/lufa/usb_util.o
 .bss           0x0000000000000000        0x0 .build/obj_atelier6k_default/protocol/lufa/usb_util.o
 .text.usb_disconnect
                0x0000000000000000        0xa .build/obj_atelier6k_default/protocol/lufa/usb_util.o
 .text.usb_connected_state
                0x0000000000000000        0xc .build/obj_atelier6k_default/protocol/lufa/usb_util.o
 .text.usb_vbus_state
                0x0000000000000000       0x1a .build/obj_atelier6k_default/protocol/lufa/usb_util.o
 .debug_info    0x0000000000000000      0x3ff .build/obj_atelier6k_default/protocol/lufa/usb_util.o
 .debug_abbrev  0x0000000000000000      0x240 .build/obj_atelier6k_default/protocol/lufa/usb_util.o
 .debug_loc     0x0000000000000000       0x4b .build/obj_atelier6k_default/protocol/lufa/usb_util.o
 .debug_aranges
                0x0000000000000000       0x30 .build/obj_atelier6k_default/protocol/lufa/usb_util.o
 .debug_ranges  0x0000000000000000       0x20 .build/obj_atelier6k_default/protocol/lufa/usb_util.o
 .debug_line    0x0000000000000000      0x2f6 .build/obj_atelier6k_default/protocol/lufa/usb_util.o
 .debug_str     0x0000000000000000      0x425 .build/obj_atelier6k_default/protocol/lufa/usb_util.o
 .comment       0x0000000000000000       0x12 .build/obj_atelier6k_default/protocol/lufa/usb_util.o
 .debug_frame   0x0000000000000000       0x44 .build/obj_atelier6k_default/protocol/lufa/usb_util.o
 .text          0x0000000000000000        0x0 e:/qmk_msys/mingw64/bin/../lib/gcc/avr/8.4.0/../../../../avr/lib/avr5\libm.a(fixunssfsi.o)
 .data          0x0000000000000000        0x0 e:/qmk_msys/mingw64/bin/../lib/gcc/avr/8.4.0/../../../../avr/lib/avr5\libm.a(fixunssfsi.o)
 .bss           0x0000000000000000        0x0 e:/qmk_msys/mingw64/bin/../lib/gcc/avr/8.4.0/../../../../avr/lib/avr5\libm.a(fixunssfsi.o)
 .text.avr-libc.fplib
                0x0000000000000000       0x5e e:/qmk_msys/mingw64/bin/../lib/gcc/avr/8.4.0/../../../../avr/lib/avr5\libm.a(fixunssfsi.o)
 .text          0x0000000000000000        0x0 e:/qmk_msys/mingw64/bin/../lib/gcc/avr/8.4.0/../../../../avr/lib/avr5\libm.a(fp_split3.o)
 .data          0x0000000000000000        0x0 e:/qmk_msys/mingw64/bin/../lib/gcc/avr/8.4.0/../../../../avr/lib/avr5\libm.a(fp_split3.o)
 .bss           0x0000000000000000        0x0 e:/qmk_msys/mingw64/bin/../lib/gcc/avr/8.4.0/../../../../avr/lib/avr5\libm.a(fp_split3.o)
 .text.avr-libc.fplib
                0x0000000000000000       0x44 e:/qmk_msys/mingw64/bin/../lib/gcc/avr/8.4.0/../../../../avr/lib/avr5\libm.a(fp_split3.o)
 .text          0x0000000000000000        0x0 e:/qmk_msys/mingw64/bin/../lib/gcc/avr/8.4.0/../../../../avr/lib/avr5\libm.a(fp_zero.o)
 .data          0x0000000000000000        0x0 e:/qmk_msys/mingw64/bin/../lib/gcc/avr/8.4.0/../../../../avr/lib/avr5\libm.a(fp_zero.o)
 .bss           0x0000000000000000        0x0 e:/qmk_msys/mingw64/bin/../lib/gcc/avr/8.4.0/../../../../avr/lib/avr5\libm.a(fp_zero.o)
 .text.avr-libc.fplib
                0x0000000000000000        0xe e:/qmk_msys/mingw64/bin/../lib/gcc/avr/8.4.0/../../../../avr/lib/avr5\libm.a(fp_zero.o)
 .text          0x0000000000000000        0x0 e:/qmk_msys/mingw64/bin/../lib/gcc/avr/8.4.0/../../../../avr/lib/avr5\libm.a(mulsf3.o)
 .data          0x0000000000000000        0x0 e:/qmk_msys/mingw64/bin/../lib/gcc/avr/8.4.0/../../../../avr/lib/avr5\libm.a(mulsf3.o)
 .bss           0x0000000000000000        0x0 e:/qmk_msys/mingw64/bin/../lib/gcc/avr/8.4.0/../../../../avr/lib/avr5\libm.a(mulsf3.o)
 .text.avr-libc.fplib
                0x0000000000000000        0x8 e:/qmk_msys/mingw64/bin/../lib/gcc/avr/8.4.0/../../../../avr/lib/avr5\libm.a(mulsf3.o)
 .text          0x0000000000000000        0x0 e:/qmk_msys/mingw64/bin/../lib/gcc/avr/8.4.0/../../../../avr/lib/avr5\libm.a(mulsf3x.o)
 .data          0x0000000000000000        0x0 e:/qmk_msys/mingw64/bin/../lib/gcc/avr/8.4.0/../../../../avr/lib/avr5\libm.a(mulsf3x.o)
 .bss           0x0000000000000000        0x0 e:/qmk_msys/mingw64/bin/../lib/gcc/avr/8.4.0/../../../../avr/lib/avr5\libm.a(mulsf3x.o)
 .text.avr-libc.fplib
                0x0000000000000000       0xd2 e:/qmk_msys/mingw64/bin/../lib/gcc/avr/8.4.0/../../../../avr/lib/avr5\libm.a(mulsf3x.o)
 .text          0x0000000000000000        0x0 e:/qmk_msys/mingw64/bin/../lib/gcc/avr/8.4.0/../../../../avr/lib/avr5\libm.a(fp_inf.o)
 .data          0x0000000000000000        0x0 e:/qmk_msys/mingw64/bin/../lib/gcc/avr/8.4.0/../../../../avr/lib/avr5\libm.a(fp_inf.o)
 .bss           0x0000000000000000        0x0 e:/qmk_msys/mingw64/bin/../lib/gcc/avr/8.4.0/../../../../avr/lib/avr5\libm.a(fp_inf.o)
 .text.avr-libc.fplib
                0x0000000000000000        0xc e:/qmk_msys/mingw64/bin/../lib/gcc/avr/8.4.0/../../../../avr/lib/avr5\libm.a(fp_inf.o)
 .text          0x0000000000000000        0x0 e:/qmk_msys/mingw64/bin/../lib/gcc/avr/8.4.0/../../../../avr/lib/avr5\libm.a(fp_nan.o)
 .data          0x0000000000000000        0x0 e:/qmk_msys/mingw64/bin/../lib/gcc/avr/8.4.0/../../../../avr/lib/avr5\libm.a(fp_nan.o)
 .bss           0x0000000000000000        0x0 e:/qmk_msys/mingw64/bin/../lib/gcc/avr/8.4.0/../../../../avr/lib/avr5\libm.a(fp_nan.o)
 .text.avr-libc.fplib
                0x0000000000000000        0x6 e:/qmk_msys/mingw64/bin/../lib/gcc/avr/8.4.0/../../../../avr/lib/avr5\libm.a(fp_nan.o)
 .text          0x0000000000000000        0x0 e:/qmk_msys/mingw64/bin/../lib/gcc/avr/8.4.0/../../../../avr/lib/avr5\libm.a(fp_pscA.o)
 .data          0x0000000000000000        0x0 e:/qmk_msys/mingw64/bin/../lib/gcc/avr/8.4.0/../../../../avr/lib/avr5\libm.a(fp_pscA.o)
 .bss           0x0000000000000000        0x0 e:/qmk_msys/mingw64/bin/../lib/gcc/avr/8.4.0/../../../../avr/lib/avr5\libm.a(fp_pscA.o)
 .text.avr-libc.fplib
                0x0000000000000000        0xe e:/qmk_msys/mingw64/bin/../lib/gcc/avr/8.4.0/../../../../avr/lib/avr5\libm.a(fp_pscA.o)
 .text          0x0000000000000000        0x0 e:/qmk_msys/mingw64/bin/../lib/gcc/avr/8.4.0/../../../../avr/lib/avr5\libm.a(fp_pscB.o)
 .data          0x0000000000000000        0x0 e:/qmk_msys/mingw64/bin/../lib/gcc/avr/8.4.0/../../../../avr/lib/avr5\libm.a(fp_pscB.o)
 .bss           0x0000000000000000        0x0 e:/qmk_msys/mingw64/bin/../lib/gcc/avr/8.4.0/../../../../avr/lib/avr5\libm.a(fp_pscB.o)
 .text.avr-libc.fplib
                0x0000000000000000        0xe e:/qmk_msys/mingw64/bin/../lib/gcc/avr/8.4.0/../../../../avr/lib/avr5\libm.a(fp_pscB.o)
 .text          0x0000000000000000        0x0 e:/qmk_msys/mingw64/bin/../lib/gcc/avr/8.4.0/../../../../avr/lib/avr5\libm.a(fp_round.o)
 .data          0x0000000000000000        0x0 e:/qmk_msys/mingw64/bin/../lib/gcc/avr/8.4.0/../../../../avr/lib/avr5\libm.a(fp_round.o)
 .bss           0x0000000000000000        0x0 e:/qmk_msys/mingw64/bin/../lib/gcc/avr/8.4.0/../../../../avr/lib/avr5\libm.a(fp_round.o)
 .text.avr-libc.fplib
                0x0000000000000000       0x22 e:/qmk_msys/mingw64/bin/../lib/gcc/avr/8.4.0/../../../../avr/lib/avr5\libm.a(fp_round.o)
 .text          0x0000000000000000        0x0 e:/qmk_msys/mingw64/bin/../lib/gcc/avr/8.4.0/avr5\libgcc.a(_mulsi3.o)
 .data          0x0000000000000000        0x0 e:/qmk_msys/mingw64/bin/../lib/gcc/avr/8.4.0/avr5\libgcc.a(_mulsi3.o)
 .bss           0x0000000000000000        0x0 e:/qmk_msys/mingw64/bin/../lib/gcc/avr/8.4.0/avr5\libgcc.a(_mulsi3.o)
 .text.libgcc.div
                0x0000000000000000        0x0 e:/qmk_msys/mingw64/bin/../lib/gcc/avr/8.4.0/avr5\libgcc.a(_mulsi3.o)
 .text.libgcc   0x0000000000000000        0x0 e:/qmk_msys/mingw64/bin/../lib/gcc/avr/8.4.0/avr5\libgcc.a(_mulsi3.o)
 .text.libgcc.prologue
                0x0000000000000000        0x0 e:/qmk_msys/mingw64/bin/../lib/gcc/avr/8.4.0/avr5\libgcc.a(_mulsi3.o)
 .text.libgcc.builtins
                0x0000000000000000        0x0 e:/qmk_msys/mingw64/bin/../lib/gcc/avr/8.4.0/avr5\libgcc.a(_mulsi3.o)
 .text.libgcc.fmul
                0x0000000000000000        0x0 e:/qmk_msys/mingw64/bin/../lib/gcc/avr/8.4.0/avr5\libgcc.a(_mulsi3.o)
 .text.libgcc.fixed
                0x0000000000000000        0x0 e:/qmk_msys/mingw64/bin/../lib/gcc/avr/8.4.0/avr5\libgcc.a(_mulsi3.o)
 .text          0x0000000000000000        0x0 e:/qmk_msys/mingw64/bin/../lib/gcc/avr/8.4.0/avr5\libgcc.a(_divmodqi4.o)
 .data          0x0000000000000000        0x0 e:/qmk_msys/mingw64/bin/../lib/gcc/avr/8.4.0/avr5\libgcc.a(_divmodqi4.o)
 .bss           0x0000000000000000        0x0 e:/qmk_msys/mingw64/bin/../lib/gcc/avr/8.4.0/avr5\libgcc.a(_divmodqi4.o)
 .text.libgcc.mul
                0x0000000000000000        0x0 e:/qmk_msys/mingw64/bin/../lib/gcc/avr/8.4.0/avr5\libgcc.a(_divmodqi4.o)
 .text.libgcc   0x0000000000000000        0x0 e:/qmk_msys/mingw64/bin/../lib/gcc/avr/8.4.0/avr5\libgcc.a(_divmodqi4.o)
 .text.libgcc.prologue
                0x0000000000000000        0x0 e:/qmk_msys/mingw64/bin/../lib/gcc/avr/8.4.0/avr5\libgcc.a(_divmodqi4.o)
 .text.libgcc.builtins
                0x0000000000000000        0x0 e:/qmk_msys/mingw64/bin/../lib/gcc/avr/8.4.0/avr5\libgcc.a(_divmodqi4.o)
 .text.libgcc.fmul
                0x0000000000000000        0x0 e:/qmk_msys/mingw64/bin/../lib/gcc/avr/8.4.0/avr5\libgcc.a(_divmodqi4.o)
 .text.libgcc.fixed
                0x0000000000000000        0x0 e:/qmk_msys/mingw64/bin/../lib/gcc/avr/8.4.0/avr5\libgcc.a(_divmodqi4.o)
 .text          0x0000000000000000        0x0 e:/qmk_msys/mingw64/bin/../lib/gcc/avr/8.4.0/avr5\libgcc.a(_udivmodhi4.o)
 .data          0x0000000000000000        0x0 e:/qmk_msys/mingw64/bin/../lib/gcc/avr/8.4.0/avr5\libgcc.a(_udivmodhi4.o)
 .bss           0x0000000000000000        0x0 e:/qmk_msys/mingw64/bin/../lib/gcc/avr/8.4.0/avr5\libgcc.a(_udivmodhi4.o)
 .text.libgcc.mul
                0x0000000000000000        0x0 e:/qmk_msys/mingw64/bin/../lib/gcc/avr/8.4.0/avr5\libgcc.a(_udivmodhi4.o)
 .text.libgcc   0x0000000000000000        0x0 e:/qmk_msys/mingw64/bin/../lib/gcc/avr/8.4.0/avr5\libgcc.a(_udivmodhi4.o)
 .text.libgcc.prologue
                0x0000000000000000        0x0 e:/qmk_msys/mingw64/bin/../lib/gcc/avr/8.4.0/avr5\libgcc.a(_udivmodhi4.o)
 .text.libgcc.builtins
                0x0000000000000000        0x0 e:/qmk_msys/mingw64/bin/../lib/gcc/avr/8.4.0/avr5\libgcc.a(_udivmodhi4.o)
 .text.libgcc.fmul
                0x0000000000000000        0x0 e:/qmk_msys/mingw64/bin/../lib/gcc/avr/8.4.0/avr5\libgcc.a(_udivmodhi4.o)
 .text.libgcc.fixed
                0x0000000000000000        0x0 e:/qmk_msys/mingw64/bin/../lib/gcc/avr/8.4.0/avr5\libgcc.a(_udivmodhi4.o)
 .text          0x0000000000000000        0x0 e:/qmk_msys/mingw64/bin/../lib/gcc/avr/8.4.0/avr5\libgcc.a(_divmodhi4.o)
 .data          0x0000000000000000        0x0 e:/qmk_msys/mingw64/bin/../lib/gcc/avr/8.4.0/avr5\libgcc.a(_divmodhi4.o)
 .bss           0x0000000000000000        0x0 e:/qmk_msys/mingw64/bin/../lib/gcc/avr/8.4.0/avr5\libgcc.a(_divmodhi4.o)
 .text.libgcc.mul
                0x0000000000000000        0x0 e:/qmk_msys/mingw64/bin/../lib/gcc/avr/8.4.0/avr5\libgcc.a(_divmodhi4.o)
 .text.libgcc   0x0000000000000000        0x0 e:/qmk_msys/mingw64/bin/../lib/gcc/avr/8.4.0/avr5\libgcc.a(_divmodhi4.o)
 .text.libgcc.prologue
                0x0000000000000000        0x0 e:/qmk_msys/mingw64/bin/../lib/gcc/avr/8.4.0/avr5\libgcc.a(_divmodhi4.o)
 .text.libgcc.builtins
                0x0000000000000000        0x0 e:/qmk_msys/mingw64/bin/../lib/gcc/avr/8.4.0/avr5\libgcc.a(_divmodhi4.o)
 .text.libgcc.fmul
                0x0000000000000000        0x0 e:/qmk_msys/mingw64/bin/../lib/gcc/avr/8.4.0/avr5\libgcc.a(_divmodhi4.o)
 .text.libgcc.fixed
                0x0000000000000000        0x0 e:/qmk_msys/mingw64/bin/../lib/gcc/avr/8.4.0/avr5\libgcc.a(_divmodhi4.o)
 .text          0x0000000000000000        0x0 e:/qmk_msys/mingw64/bin/../lib/gcc/avr/8.4.0/avr5\libgcc.a(_udivmodsi4.o)
 .data          0x0000000000000000        0x0 e:/qmk_msys/mingw64/bin/../lib/gcc/avr/8.4.0/avr5\libgcc.a(_udivmodsi4.o)
 .bss           0x0000000000000000        0x0 e:/qmk_msys/mingw64/bin/../lib/gcc/avr/8.4.0/avr5\libgcc.a(_udivmodsi4.o)
 .text.libgcc.mul
                0x0000000000000000        0x0 e:/qmk_msys/mingw64/bin/../lib/gcc/avr/8.4.0/avr5\libgcc.a(_udivmodsi4.o)
 .text.libgcc   0x0000000000000000        0x0 e:/qmk_msys/mingw64/bin/../lib/gcc/avr/8.4.0/avr5\libgcc.a(_udivmodsi4.o)
 .text.libgcc.prologue
                0x0000000000000000        0x0 e:/qmk_msys/mingw64/bin/../lib/gcc/avr/8.4.0/avr5\libgcc.a(_udivmodsi4.o)
 .text.libgcc.builtins
                0x0000000000000000        0x0 e:/qmk_msys/mingw64/bin/../lib/gcc/avr/8.4.0/avr5\libgcc.a(_udivmodsi4.o)
 .text.libgcc.fmul
                0x0000000000000000        0x0 e:/qmk_msys/mingw64/bin/../lib/gcc/avr/8.4.0/avr5\libgcc.a(_udivmodsi4.o)
 .text.libgcc.fixed
                0x0000000000000000        0x0 e:/qmk_msys/mingw64/bin/../lib/gcc/avr/8.4.0/avr5\libgcc.a(_udivmodsi4.o)
 .text          0x0000000000000000        0x0 e:/qmk_msys/mingw64/bin/../lib/gcc/avr/8.4.0/avr5\libgcc.a(_exit.o)
 .data          0x0000000000000000        0x0 e:/qmk_msys/mingw64/bin/../lib/gcc/avr/8.4.0/avr5\libgcc.a(_exit.o)
 .bss           0x0000000000000000        0x0 e:/qmk_msys/mingw64/bin/../lib/gcc/avr/8.4.0/avr5\libgcc.a(_exit.o)
 .text.libgcc.mul
                0x0000000000000000        0x0 e:/qmk_msys/mingw64/bin/../lib/gcc/avr/8.4.0/avr5\libgcc.a(_exit.o)
 .text.libgcc.div
                0x0000000000000000        0x0 e:/qmk_msys/mingw64/bin/../lib/gcc/avr/8.4.0/avr5\libgcc.a(_exit.o)
 .text.libgcc   0x0000000000000000        0x0 e:/qmk_msys/mingw64/bin/../lib/gcc/avr/8.4.0/avr5\libgcc.a(_exit.o)
 .text.libgcc.prologue
                0x0000000000000000        0x0 e:/qmk_msys/mingw64/bin/../lib/gcc/avr/8.4.0/avr5\libgcc.a(_exit.o)
 .text.libgcc.builtins
                0x0000000000000000        0x0 e:/qmk_msys/mingw64/bin/../lib/gcc/avr/8.4.0/avr5\libgcc.a(_exit.o)
 .text.libgcc.fmul
                0x0000000000000000        0x0 e:/qmk_msys/mingw64/bin/../lib/gcc/avr/8.4.0/avr5\libgcc.a(_exit.o)
 .text.libgcc.fixed
                0x0000000000000000        0x0 e:/qmk_msys/mingw64/bin/../lib/gcc/avr/8.4.0/avr5\libgcc.a(_exit.o)
 .text          0x0000000000000000        0x0 e:/qmk_msys/mingw64/bin/../lib/gcc/avr/8.4.0/avr5\libgcc.a(_tablejump2.o)
 .data          0x0000000000000000        0x0 e:/qmk_msys/mingw64/bin/../lib/gcc/avr/8.4.0/avr5\libgcc.a(_tablejump2.o)
 .bss           0x0000000000000000        0x0 e:/qmk_msys/mingw64/bin/../lib/gcc/avr/8.4.0/avr5\libgcc.a(_tablejump2.o)
 .text.libgcc.mul
                0x0000000000000000        0x0 e:/qmk_msys/mingw64/bin/../lib/gcc/avr/8.4.0/avr5\libgcc.a(_tablejump2.o)
 .text.libgcc.div
                0x0000000000000000        0x0 e:/qmk_msys/mingw64/bin/../lib/gcc/avr/8.4.0/avr5\libgcc.a(_tablejump2.o)
 .text.libgcc.prologue
                0x0000000000000000        0x0 e:/qmk_msys/mingw64/bin/../lib/gcc/avr/8.4.0/avr5\libgcc.a(_tablejump2.o)
 .text.libgcc.builtins
                0x0000000000000000        0x0 e:/qmk_msys/mingw64/bin/../lib/gcc/avr/8.4.0/avr5\libgcc.a(_tablejump2.o)
 .text.libgcc.fmul
                0x0000000000000000        0x0 e:/qmk_msys/mingw64/bin/../lib/gcc/avr/8.4.0/avr5\libgcc.a(_tablejump2.o)
 .text.libgcc.fixed
                0x0000000000000000        0x0 e:/qmk_msys/mingw64/bin/../lib/gcc/avr/8.4.0/avr5\libgcc.a(_tablejump2.o)
 .text          0x0000000000000000        0x0 e:/qmk_msys/mingw64/bin/../lib/gcc/avr/8.4.0/avr5\libgcc.a(_copy_data.o)
 .data          0x0000000000000000        0x0 e:/qmk_msys/mingw64/bin/../lib/gcc/avr/8.4.0/avr5\libgcc.a(_copy_data.o)
 .bss           0x0000000000000000        0x0 e:/qmk_msys/mingw64/bin/../lib/gcc/avr/8.4.0/avr5\libgcc.a(_copy_data.o)
 .text.libgcc.mul
                0x0000000000000000        0x0 e:/qmk_msys/mingw64/bin/../lib/gcc/avr/8.4.0/avr5\libgcc.a(_copy_data.o)
 .text.libgcc.div
                0x0000000000000000        0x0 e:/qmk_msys/mingw64/bin/../lib/gcc/avr/8.4.0/avr5\libgcc.a(_copy_data.o)
 .text.libgcc   0x0000000000000000        0x0 e:/qmk_msys/mingw64/bin/../lib/gcc/avr/8.4.0/avr5\libgcc.a(_copy_data.o)
 .text.libgcc.prologue
                0x0000000000000000        0x0 e:/qmk_msys/mingw64/bin/../lib/gcc/avr/8.4.0/avr5\libgcc.a(_copy_data.o)
 .text.libgcc.builtins
                0x0000000000000000        0x0 e:/qmk_msys/mingw64/bin/../lib/gcc/avr/8.4.0/avr5\libgcc.a(_copy_data.o)
 .text.libgcc.fmul
                0x0000000000000000        0x0 e:/qmk_msys/mingw64/bin/../lib/gcc/avr/8.4.0/avr5\libgcc.a(_copy_data.o)
 .text.libgcc.fixed
                0x0000000000000000        0x0 e:/qmk_msys/mingw64/bin/../lib/gcc/avr/8.4.0/avr5\libgcc.a(_copy_data.o)
 .text          0x0000000000000000        0x0 e:/qmk_msys/mingw64/bin/../lib/gcc/avr/8.4.0/avr5\libgcc.a(_clear_bss.o)
 .data          0x0000000000000000        0x0 e:/qmk_msys/mingw64/bin/../lib/gcc/avr/8.4.0/avr5\libgcc.a(_clear_bss.o)
 .bss           0x0000000000000000        0x0 e:/qmk_msys/mingw64/bin/../lib/gcc/avr/8.4.0/avr5\libgcc.a(_clear_bss.o)
 .text.libgcc.mul
                0x0000000000000000        0x0 e:/qmk_msys/mingw64/bin/../lib/gcc/avr/8.4.0/avr5\libgcc.a(_clear_bss.o)
 .text.libgcc.div
                0x0000000000000000        0x0 e:/qmk_msys/mingw64/bin/../lib/gcc/avr/8.4.0/avr5\libgcc.a(_clear_bss.o)
 .text.libgcc   0x0000000000000000        0x0 e:/qmk_msys/mingw64/bin/../lib/gcc/avr/8.4.0/avr5\libgcc.a(_clear_bss.o)
 .text.libgcc.prologue
                0x0000000000000000        0x0 e:/qmk_msys/mingw64/bin/../lib/gcc/avr/8.4.0/avr5\libgcc.a(_clear_bss.o)
 .text.libgcc.builtins
                0x0000000000000000        0x0 e:/qmk_msys/mingw64/bin/../lib/gcc/avr/8.4.0/avr5\libgcc.a(_clear_bss.o)
 .text.libgcc.fmul
                0x0000000000000000        0x0 e:/qmk_msys/mingw64/bin/../lib/gcc/avr/8.4.0/avr5\libgcc.a(_clear_bss.o)
 .text.libgcc.fixed
                0x0000000000000000        0x0 e:/qmk_msys/mingw64/bin/../lib/gcc/avr/8.4.0/avr5\libgcc.a(_clear_bss.o)
 .text          0x0000000000000000        0x0 e:/qmk_msys/mingw64/bin/../lib/gcc/avr/8.4.0/avr5\libgcc.a(_bswapsi2.o)
 .data          0x0000000000000000        0x0 e:/qmk_msys/mingw64/bin/../lib/gcc/avr/8.4.0/avr5\libgcc.a(_bswapsi2.o)
 .bss           0x0000000000000000        0x0 e:/qmk_msys/mingw64/bin/../lib/gcc/avr/8.4.0/avr5\libgcc.a(_bswapsi2.o)
 .text.libgcc.mul
                0x0000000000000000        0x0 e:/qmk_msys/mingw64/bin/../lib/gcc/avr/8.4.0/avr5\libgcc.a(_bswapsi2.o)
 .text.libgcc.div
                0x0000000000000000        0x0 e:/qmk_msys/mingw64/bin/../lib/gcc/avr/8.4.0/avr5\libgcc.a(_bswapsi2.o)
 .text.libgcc   0x0000000000000000        0x0 e:/qmk_msys/mingw64/bin/../lib/gcc/avr/8.4.0/avr5\libgcc.a(_bswapsi2.o)
 .text.libgcc.prologue
                0x0000000000000000        0x0 e:/qmk_msys/mingw64/bin/../lib/gcc/avr/8.4.0/avr5\libgcc.a(_bswapsi2.o)
 .text.libgcc.fmul
                0x0000000000000000        0x0 e:/qmk_msys/mingw64/bin/../lib/gcc/avr/8.4.0/avr5\libgcc.a(_bswapsi2.o)
 .text.libgcc.fixed
                0x0000000000000000        0x0 e:/qmk_msys/mingw64/bin/../lib/gcc/avr/8.4.0/avr5\libgcc.a(_bswapsi2.o)
 .text          0x0000000000000000        0x0 e:/qmk_msys/mingw64/bin/../lib/gcc/avr/8.4.0/avr5\libgcc.a(_mulhisi3.o)
 .data          0x0000000000000000        0x0 e:/qmk_msys/mingw64/bin/../lib/gcc/avr/8.4.0/avr5\libgcc.a(_mulhisi3.o)
 .bss           0x0000000000000000        0x0 e:/qmk_msys/mingw64/bin/../lib/gcc/avr/8.4.0/avr5\libgcc.a(_mulhisi3.o)
 .text.libgcc.div
                0x0000000000000000        0x0 e:/qmk_msys/mingw64/bin/../lib/gcc/avr/8.4.0/avr5\libgcc.a(_mulhisi3.o)
 .text.libgcc   0x0000000000000000        0x0 e:/qmk_msys/mingw64/bin/../lib/gcc/avr/8.4.0/avr5\libgcc.a(_mulhisi3.o)
 .text.libgcc.prologue
                0x0000000000000000        0x0 e:/qmk_msys/mingw64/bin/../lib/gcc/avr/8.4.0/avr5\libgcc.a(_mulhisi3.o)
 .text.libgcc.builtins
                0x0000000000000000        0x0 e:/qmk_msys/mingw64/bin/../lib/gcc/avr/8.4.0/avr5\libgcc.a(_mulhisi3.o)
 .text.libgcc.fmul
                0x0000000000000000        0x0 e:/qmk_msys/mingw64/bin/../lib/gcc/avr/8.4.0/avr5\libgcc.a(_mulhisi3.o)
 .text.libgcc.fixed
                0x0000000000000000        0x0 e:/qmk_msys/mingw64/bin/../lib/gcc/avr/8.4.0/avr5\libgcc.a(_mulhisi3.o)
 .text          0x0000000000000000        0x0 e:/qmk_msys/mingw64/bin/../lib/gcc/avr/8.4.0/avr5\libgcc.a(_umulhisi3.o)
 .data          0x0000000000000000        0x0 e:/qmk_msys/mingw64/bin/../lib/gcc/avr/8.4.0/avr5\libgcc.a(_umulhisi3.o)
 .bss           0x0000000000000000        0x0 e:/qmk_msys/mingw64/bin/../lib/gcc/avr/8.4.0/avr5\libgcc.a(_umulhisi3.o)
 .text.libgcc.div
                0x0000000000000000        0x0 e:/qmk_msys/mingw64/bin/../lib/gcc/avr/8.4.0/avr5\libgcc.a(_umulhisi3.o)
 .text.libgcc   0x0000000000000000        0x0 e:/qmk_msys/mingw64/bin/../lib/gcc/avr/8.4.0/avr5\libgcc.a(_umulhisi3.o)
 .text.libgcc.prologue
                0x0000000000000000        0x0 e:/qmk_msys/mingw64/bin/../lib/gcc/avr/8.4.0/avr5\libgcc.a(_umulhisi3.o)
 .text.libgcc.builtins
                0x0000000000000000        0x0 e:/qmk_msys/mingw64/bin/../lib/gcc/avr/8.4.0/avr5\libgcc.a(_umulhisi3.o)
 .text.libgcc.fmul
                0x0000000000000000        0x0 e:/qmk_msys/mingw64/bin/../lib/gcc/avr/8.4.0/avr5\libgcc.a(_umulhisi3.o)
 .text.libgcc.fixed
                0x0000000000000000        0x0 e:/qmk_msys/mingw64/bin/../lib/gcc/avr/8.4.0/avr5\libgcc.a(_umulhisi3.o)
 .text          0x0000000000000000        0x0 e:/qmk_msys/mingw64/bin/../lib/gcc/avr/8.4.0/avr5\libgcc.a(_usmulhisi3.o)
 .data          0x0000000000000000        0x0 e:/qmk_msys/mingw64/bin/../lib/gcc/avr/8.4.0/avr5\libgcc.a(_usmulhisi3.o)
 .bss           0x0000000000000000        0x0 e:/qmk_msys/mingw64/bin/../lib/gcc/avr/8.4.0/avr5\libgcc.a(_usmulhisi3.o)
 .text.libgcc.div
                0x0000000000000000        0x0 e:/qmk_msys/mingw64/bin/../lib/gcc/avr/8.4.0/avr5\libgcc.a(_usmulhisi3.o)
 .text.libgcc   0x0000000000000000        0x0 e:/qmk_msys/mingw64/bin/../lib/gcc/avr/8.4.0/avr5\libgcc.a(_usmulhisi3.o)
 .text.libgcc.prologue
                0x0000000000000000        0x0 e:/qmk_msys/mingw64/bin/../lib/gcc/avr/8.4.0/avr5\libgcc.a(_usmulhisi3.o)
 .text.libgcc.builtins
                0x0000000000000000        0x0 e:/qmk_msys/mingw64/bin/../lib/gcc/avr/8.4.0/avr5\libgcc.a(_usmulhisi3.o)
 .text.libgcc.fmul
                0x0000000000000000        0x0 e:/qmk_msys/mingw64/bin/../lib/gcc/avr/8.4.0/avr5\libgcc.a(_usmulhisi3.o)
 .text.libgcc.fixed
                0x0000000000000000        0x0 e:/qmk_msys/mingw64/bin/../lib/gcc/avr/8.4.0/avr5\libgcc.a(_usmulhisi3.o)
 .text          0x0000000000000000        0x0 e:/qmk_msys/mingw64/bin/../lib/gcc/avr/8.4.0/avr5\libgcc.a(_muluhisi3.o)
 .data          0x0000000000000000        0x0 e:/qmk_msys/mingw64/bin/../lib/gcc/avr/8.4.0/avr5\libgcc.a(_muluhisi3.o)
 .bss           0x0000000000000000        0x0 e:/qmk_msys/mingw64/bin/../lib/gcc/avr/8.4.0/avr5\libgcc.a(_muluhisi3.o)
 .text.libgcc.div
                0x0000000000000000        0x0 e:/qmk_msys/mingw64/bin/../lib/gcc/avr/8.4.0/avr5\libgcc.a(_muluhisi3.o)
 .text.libgcc   0x0000000000000000        0x0 e:/qmk_msys/mingw64/bin/../lib/gcc/avr/8.4.0/avr5\libgcc.a(_muluhisi3.o)
 .text.libgcc.prologue
                0x0000000000000000        0x0 e:/qmk_msys/mingw64/bin/../lib/gcc/avr/8.4.0/avr5\libgcc.a(_muluhisi3.o)
 .text.libgcc.builtins
                0x0000000000000000        0x0 e:/qmk_msys/mingw64/bin/../lib/gcc/avr/8.4.0/avr5\libgcc.a(_muluhisi3.o)
 .text.libgcc.fmul
                0x0000000000000000        0x0 e:/qmk_msys/mingw64/bin/../lib/gcc/avr/8.4.0/avr5\libgcc.a(_muluhisi3.o)
 .text.libgcc.fixed
                0x0000000000000000        0x0 e:/qmk_msys/mingw64/bin/../lib/gcc/avr/8.4.0/avr5\libgcc.a(_muluhisi3.o)
 .text          0x0000000000000000        0x0 e:/qmk_msys/mingw64/bin/../lib/gcc/avr/8.4.0/avr5\libgcc.a(_mulshisi3.o)
 .data          0x0000000000000000        0x0 e:/qmk_msys/mingw64/bin/../lib/gcc/avr/8.4.0/avr5\libgcc.a(_mulshisi3.o)
 .bss           0x0000000000000000        0x0 e:/qmk_msys/mingw64/bin/../lib/gcc/avr/8.4.0/avr5\libgcc.a(_mulshisi3.o)
 .text.libgcc.div
                0x0000000000000000        0x0 e:/qmk_msys/mingw64/bin/../lib/gcc/avr/8.4.0/avr5\libgcc.a(_mulshisi3.o)
 .text.libgcc   0x0000000000000000        0x0 e:/qmk_msys/mingw64/bin/../lib/gcc/avr/8.4.0/avr5\libgcc.a(_mulshisi3.o)
 .text.libgcc.prologue
                0x0000000000000000        0x0 e:/qmk_msys/mingw64/bin/../lib/gcc/avr/8.4.0/avr5\libgcc.a(_mulshisi3.o)
 .text.libgcc.builtins
                0x0000000000000000        0x0 e:/qmk_msys/mingw64/bin/../lib/gcc/avr/8.4.0/avr5\libgcc.a(_mulshisi3.o)
 .text.libgcc.fmul
                0x0000000000000000        0x0 e:/qmk_msys/mingw64/bin/../lib/gcc/avr/8.4.0/avr5\libgcc.a(_mulshisi3.o)
 .text.libgcc.fixed
                0x0000000000000000        0x0 e:/qmk_msys/mingw64/bin/../lib/gcc/avr/8.4.0/avr5\libgcc.a(_mulshisi3.o)
 .text          0x0000000000000000        0x0 e:/qmk_msys/mingw64/bin/../lib/gcc/avr/8.4.0/avr5\libgcc.a(_prologue.o)
 .data          0x0000000000000000        0x0 e:/qmk_msys/mingw64/bin/../lib/gcc/avr/8.4.0/avr5\libgcc.a(_prologue.o)
 .bss           0x0000000000000000        0x0 e:/qmk_msys/mingw64/bin/../lib/gcc/avr/8.4.0/avr5\libgcc.a(_prologue.o)
 .text.libgcc.mul
                0x0000000000000000        0x0 e:/qmk_msys/mingw64/bin/../lib/gcc/avr/8.4.0/avr5\libgcc.a(_prologue.o)
 .text.libgcc.div
                0x0000000000000000        0x0 e:/qmk_msys/mingw64/bin/../lib/gcc/avr/8.4.0/avr5\libgcc.a(_prologue.o)
 .text.libgcc   0x0000000000000000        0x0 e:/qmk_msys/mingw64/bin/../lib/gcc/avr/8.4.0/avr5\libgcc.a(_prologue.o)
 .text.libgcc.builtins
                0x0000000000000000        0x0 e:/qmk_msys/mingw64/bin/../lib/gcc/avr/8.4.0/avr5\libgcc.a(_prologue.o)
 .text.libgcc.fmul
                0x0000000000000000        0x0 e:/qmk_msys/mingw64/bin/../lib/gcc/avr/8.4.0/avr5\libgcc.a(_prologue.o)
 .text.libgcc.fixed
                0x0000000000000000        0x0 e:/qmk_msys/mingw64/bin/../lib/gcc/avr/8.4.0/avr5\libgcc.a(_prologue.o)
 .text          0x0000000000000000        0x0 e:/qmk_msys/mingw64/bin/../lib/gcc/avr/8.4.0/avr5\libgcc.a(_epilogue.o)
 .data          0x0000000000000000        0x0 e:/qmk_msys/mingw64/bin/../lib/gcc/avr/8.4.0/avr5\libgcc.a(_epilogue.o)
 .bss           0x0000000000000000        0x0 e:/qmk_msys/mingw64/bin/../lib/gcc/avr/8.4.0/avr5\libgcc.a(_epilogue.o)
 .text.libgcc.mul
                0x0000000000000000        0x0 e:/qmk_msys/mingw64/bin/../lib/gcc/avr/8.4.0/avr5\libgcc.a(_epilogue.o)
 .text.libgcc.div
                0x0000000000000000        0x0 e:/qmk_msys/mingw64/bin/../lib/gcc/avr/8.4.0/avr5\libgcc.a(_epilogue.o)
 .text.libgcc   0x0000000000000000        0x0 e:/qmk_msys/mingw64/bin/../lib/gcc/avr/8.4.0/avr5\libgcc.a(_epilogue.o)
 .text.libgcc.builtins
                0x0000000000000000        0x0 e:/qmk_msys/mingw64/bin/../lib/gcc/avr/8.4.0/avr5\libgcc.a(_epilogue.o)
 .text.libgcc.fmul
                0x0000000000000000        0x0 e:/qmk_msys/mingw64/bin/../lib/gcc/avr/8.4.0/avr5\libgcc.a(_epilogue.o)
 .text.libgcc.fixed
                0x0000000000000000        0x0 e:/qmk_msys/mingw64/bin/../lib/gcc/avr/8.4.0/avr5\libgcc.a(_epilogue.o)
 .text          0x0000000000000000        0x0 e:/qmk_msys/mingw64/bin/../lib/gcc/avr/8.4.0/avr5\libgcc.a(_udivmodqi4.o)
 .data          0x0000000000000000        0x0 e:/qmk_msys/mingw64/bin/../lib/gcc/avr/8.4.0/avr5\libgcc.a(_udivmodqi4.o)
 .bss           0x0000000000000000        0x0 e:/qmk_msys/mingw64/bin/../lib/gcc/avr/8.4.0/avr5\libgcc.a(_udivmodqi4.o)
 .text.libgcc.mul
                0x0000000000000000        0x0 e:/qmk_msys/mingw64/bin/../lib/gcc/avr/8.4.0/avr5\libgcc.a(_udivmodqi4.o)
 .text.libgcc   0x0000000000000000        0x0 e:/qmk_msys/mingw64/bin/../lib/gcc/avr/8.4.0/avr5\libgcc.a(_udivmodqi4.o)
 .text.libgcc.prologue
                0x0000000000000000        0x0 e:/qmk_msys/mingw64/bin/../lib/gcc/avr/8.4.0/avr5\libgcc.a(_udivmodqi4.o)
 .text.libgcc.builtins
                0x0000000000000000        0x0 e:/qmk_msys/mingw64/bin/../lib/gcc/avr/8.4.0/avr5\libgcc.a(_udivmodqi4.o)
 .text.libgcc.fmul
                0x0000000000000000        0x0 e:/qmk_msys/mingw64/bin/../lib/gcc/avr/8.4.0/avr5\libgcc.a(_udivmodqi4.o)
 .text.libgcc.fixed
                0x0000000000000000        0x0 e:/qmk_msys/mingw64/bin/../lib/gcc/avr/8.4.0/avr5\libgcc.a(_udivmodqi4.o)
 .text          0x0000000000000000        0x0 e:/qmk_msys/mingw64/bin/../lib/gcc/avr/8.4.0/../../../../avr/lib/avr5\libc.a(memchr.o)
 .data          0x0000000000000000        0x0 e:/qmk_msys/mingw64/bin/../lib/gcc/avr/8.4.0/../../../../avr/lib/avr5\libc.a(memchr.o)
 .bss           0x0000000000000000        0x0 e:/qmk_msys/mingw64/bin/../lib/gcc/avr/8.4.0/../../../../avr/lib/avr5\libc.a(memchr.o)
 .text          0x0000000000000000        0x0 e:/qmk_msys/mingw64/bin/../lib/gcc/avr/8.4.0/../../../../avr/lib/avr5\libc.a(memcmp.o)
 .data          0x0000000000000000        0x0 e:/qmk_msys/mingw64/bin/../lib/gcc/avr/8.4.0/../../../../avr/lib/avr5\libc.a(memcmp.o)
 .bss           0x0000000000000000        0x0 e:/qmk_msys/mingw64/bin/../lib/gcc/avr/8.4.0/../../../../avr/lib/avr5\libc.a(memcmp.o)
 .text          0x0000000000000000        0x0 e:/qmk_msys/mingw64/bin/../lib/gcc/avr/8.4.0/../../../../avr/lib/avr5\libatmega32u4.a(eerd_byte.o)
 .data          0x0000000000000000        0x0 e:/qmk_msys/mingw64/bin/../lib/gcc/avr/8.4.0/../../../../avr/lib/avr5\libatmega32u4.a(eerd_byte.o)
 .bss           0x0000000000000000        0x0 e:/qmk_msys/mingw64/bin/../lib/gcc/avr/8.4.0/../../../../avr/lib/avr5\libatmega32u4.a(eerd_byte.o)
 .text          0x0000000000000000        0x0 e:/qmk_msys/mingw64/bin/../lib/gcc/avr/8.4.0/../../../../avr/lib/avr5\libatmega32u4.a(eerd_dword.o)
 .data          0x0000000000000000        0x0 e:/qmk_msys/mingw64/bin/../lib/gcc/avr/8.4.0/../../../../avr/lib/avr5\libatmega32u4.a(eerd_dword.o)
 .bss           0x0000000000000000        0x0 e:/qmk_msys/mingw64/bin/../lib/gcc/avr/8.4.0/../../../../avr/lib/avr5\libatmega32u4.a(eerd_dword.o)
 .text          0x0000000000000000        0x0 e:/qmk_msys/mingw64/bin/../lib/gcc/avr/8.4.0/../../../../avr/lib/avr5\libatmega32u4.a(eerd_word.o)
 .data          0x0000000000000000        0x0 e:/qmk_msys/mingw64/bin/../lib/gcc/avr/8.4.0/../../../../avr/lib/avr5\libatmega32u4.a(eerd_word.o)
 .bss           0x0000000000000000        0x0 e:/qmk_msys/mingw64/bin/../lib/gcc/avr/8.4.0/../../../../avr/lib/avr5\libatmega32u4.a(eerd_word.o)
 .text          0x0000000000000000        0x0 e:/qmk_msys/mingw64/bin/../lib/gcc/avr/8.4.0/../../../../avr/lib/avr5\libatmega32u4.a(eeupd_byte.o)
 .data          0x0000000000000000        0x0 e:/qmk_msys/mingw64/bin/../lib/gcc/avr/8.4.0/../../../../avr/lib/avr5\libatmega32u4.a(eeupd_byte.o)
 .bss           0x0000000000000000        0x0 e:/qmk_msys/mingw64/bin/../lib/gcc/avr/8.4.0/../../../../avr/lib/avr5\libatmega32u4.a(eeupd_byte.o)
 .text          0x0000000000000000        0x0 e:/qmk_msys/mingw64/bin/../lib/gcc/avr/8.4.0/../../../../avr/lib/avr5\libatmega32u4.a(eeupd_dword.o)
 .data          0x0000000000000000        0x0 e:/qmk_msys/mingw64/bin/../lib/gcc/avr/8.4.0/../../../../avr/lib/avr5\libatmega32u4.a(eeupd_dword.o)
 .bss           0x0000000000000000        0x0 e:/qmk_msys/mingw64/bin/../lib/gcc/avr/8.4.0/../../../../avr/lib/avr5\libatmega32u4.a(eeupd_dword.o)
 .text          0x0000000000000000        0x0 e:/qmk_msys/mingw64/bin/../lib/gcc/avr/8.4.0/../../../../avr/lib/avr5\libatmega32u4.a(eeupd_word.o)
 .data          0x0000000000000000        0x0 e:/qmk_msys/mingw64/bin/../lib/gcc/avr/8.4.0/../../../../avr/lib/avr5\libatmega32u4.a(eeupd_word.o)
 .bss           0x0000000000000000        0x0 e:/qmk_msys/mingw64/bin/../lib/gcc/avr/8.4.0/../../../../avr/lib/avr5\libatmega32u4.a(eeupd_word.o)
 .text          0x0000000000000000        0x0 e:/qmk_msys/mingw64/bin/../lib/gcc/avr/8.4.0/../../../../avr/lib/avr5\libatmega32u4.a(eerd_block.o)
 .data          0x0000000000000000        0x0 e:/qmk_msys/mingw64/bin/../lib/gcc/avr/8.4.0/../../../../avr/lib/avr5\libatmega32u4.a(eerd_block.o)
 .bss           0x0000000000000000        0x0 e:/qmk_msys/mingw64/bin/../lib/gcc/avr/8.4.0/../../../../avr/lib/avr5\libatmega32u4.a(eerd_block.o)

Memory Configuration

Name             Origin             Length             Attributes
text             0x0000000000000000 0x0000000000020000 xr
data             0x0000000000800060 0x000000000000ffa0 rw !x
eeprom           0x0000000000810000 0x0000000000010000 rw !x
fuse             0x0000000000820000 0x0000000000000400 rw !x
lock             0x0000000000830000 0x0000000000000400 rw !x
signature        0x0000000000840000 0x0000000000000400 rw !x
user_signatures  0x0000000000850000 0x0000000000000400 rw !x
*default*        0x0000000000000000 0xffffffffffffffff

Linker script and memory map

Address of section .data set to 0x800100
LOAD e:/qmk_msys/mingw64/bin/../lib/gcc/avr/8.4.0/../../../../avr/lib/avr5/crtatmega32u4.o
LOAD .build/obj_atelier6k_default/keyboards/atelier6k/atelier6k.o
LOAD .build/obj_atelier6k_default/.build/obj_atelier6k/src/default_keyboard.o
LOAD .build/obj_atelier6k_default/keyboards/atelier6k/keymaps/default/keymap.o
LOAD .build/obj_atelier6k_default/quantum/quantum.o
LOAD .build/obj_atelier6k_default/quantum/send_string.o
LOAD .build/obj_atelier6k_default/quantum/bitwise.o
LOAD .build/obj_atelier6k_default/quantum/led.o
LOAD .build/obj_atelier6k_default/quantum/action.o
LOAD .build/obj_atelier6k_default/quantum/action_layer.o
LOAD .build/obj_atelier6k_default/quantum/action_tapping.o
LOAD .build/obj_atelier6k_default/quantum/action_util.o
LOAD .build/obj_atelier6k_default/quantum/eeconfig.o
LOAD .build/obj_atelier6k_default/quantum/keyboard.o
LOAD .build/obj_atelier6k_default/quantum/keymap_common.o
LOAD .build/obj_atelier6k_default/quantum/keycode_config.o
LOAD .build/obj_atelier6k_default/quantum/sync_timer.o
LOAD .build/obj_atelier6k_default/quantum/logging/debug.o
LOAD .build/obj_atelier6k_default/quantum/logging/sendchar.o
LOAD .build/obj_atelier6k_default/quantum/bootmagic/bootmagic_lite.o
LOAD .build/obj_atelier6k_default/quantum/bootmagic/magic.o
LOAD .build/obj_atelier6k_default/quantum/matrix_common.o
LOAD .build/obj_atelier6k_default/quantum/matrix.o
LOAD .build/obj_atelier6k_default/quantum/debounce/sym_defer_g.o
LOAD .build/obj_atelier6k_default/quantum/main.o
LOAD .build/obj_atelier6k_default/quantum/mousekey.o
LOAD .build/obj_atelier6k_default/quantum/color.o
LOAD .build/obj_atelier6k_default/quantum/rgblight/rgblight.o
LOAD .build/obj_atelier6k_default/quantum/process_keycode/process_rgb.o
LOAD .build/obj_atelier6k_default/quantum/backlight/backlight.o
LOAD .build/obj_atelier6k_default/quantum/process_keycode/process_backlight.o
LOAD .build/obj_atelier6k_default/quantum/backlight/backlight_driver_common.o
LOAD .build/obj_atelier6k_default/quantum/backlight/backlight_avr.o
LOAD .build/obj_atelier6k_default/ws2812.o
LOAD .build/obj_atelier6k_default/quantum/led_tables.o
LOAD .build/obj_atelier6k_default/quantum/via.o
LOAD .build/obj_atelier6k_default/quantum/process_keycode/process_magic.o
LOAD .build/obj_atelier6k_default/quantum/dynamic_keymap.o
LOAD .build/obj_atelier6k_default/quantum/process_keycode/process_grave_esc.o
LOAD .build/obj_atelier6k_default/quantum/process_keycode/process_space_cadet.o
LOAD .build/obj_atelier6k_default/platforms/avr/xprintf.o
LOAD .build/obj_atelier6k_default/platforms/avr/printf.o
LOAD .build/obj_atelier6k_default/protocol/host.o
LOAD .build/obj_atelier6k_default/protocol/report.o
LOAD .build/obj_atelier6k_default/protocol/usb_device_state.o
LOAD .build/obj_atelier6k_default/protocol/usb_util.o
LOAD .build/obj_atelier6k_default/platforms/suspend.o
LOAD .build/obj_atelier6k_default/platforms/avr/hardware_id.o
LOAD .build/obj_atelier6k_default/platforms/avr/platform.o
LOAD .build/obj_atelier6k_default/platforms/avr/suspend.o
LOAD .build/obj_atelier6k_default/platforms/avr/timer.o
LOAD .build/obj_atelier6k_default/platforms/avr/bootloaders/dfu.o
LOAD .build/obj_atelier6k_default/lufa.o
LOAD .build/obj_atelier6k_default/usb_descriptor.o
LOAD .build/obj_atelier6k_default/lib/lufa/LUFA/Drivers/USB/Class/Common/HIDParser.o
LOAD .build/obj_atelier6k_default/lib/lufa/LUFA/Drivers/USB/Core/AVR8/Device_AVR8.o
LOAD .build/obj_atelier6k_default/lib/lufa/LUFA/Drivers/USB/Core/AVR8/EndpointStream_AVR8.o
LOAD .build/obj_atelier6k_default/lib/lufa/LUFA/Drivers/USB/Core/AVR8/Endpoint_AVR8.o
LOAD .build/obj_atelier6k_default/lib/lufa/LUFA/Drivers/USB/Core/AVR8/Host_AVR8.o
LOAD .build/obj_atelier6k_default/lib/lufa/LUFA/Drivers/USB/Core/AVR8/PipeStream_AVR8.o
LOAD .build/obj_atelier6k_default/lib/lufa/LUFA/Drivers/USB/Core/AVR8/Pipe_AVR8.o
LOAD .build/obj_atelier6k_default/lib/lufa/LUFA/Drivers/USB/Core/AVR8/USBController_AVR8.o
LOAD .build/obj_atelier6k_default/lib/lufa/LUFA/Drivers/USB/Core/AVR8/USBInterrupt_AVR8.o
LOAD .build/obj_atelier6k_default/lib/lufa/LUFA/Drivers/USB/Core/ConfigDescriptors.o
LOAD .build/obj_atelier6k_default/lib/lufa/LUFA/Drivers/USB/Core/DeviceStandardReq.o
LOAD .build/obj_atelier6k_default/lib/lufa/LUFA/Drivers/USB/Core/Events.o
LOAD .build/obj_atelier6k_default/lib/lufa/LUFA/Drivers/USB/Core/HostStandardReq.o
LOAD .build/obj_atelier6k_default/lib/lufa/LUFA/Drivers/USB/Core/USBTask.o
LOAD .build/obj_atelier6k_default/protocol/lufa/usb_util.o
LOAD e:/qmk_msys/mingw64/bin/../lib/gcc/avr/8.4.0/../../../../avr/lib/avr5\libm.a
START GROUP
LOAD e:/qmk_msys/mingw64/bin/../lib/gcc/avr/8.4.0/avr5\libgcc.a
LOAD e:/qmk_msys/mingw64/bin/../lib/gcc/avr/8.4.0/../../../../avr/lib/avr5\libm.a
LOAD e:/qmk_msys/mingw64/bin/../lib/gcc/avr/8.4.0/../../../../avr/lib/avr5\libc.a
LOAD e:/qmk_msys/mingw64/bin/../lib/gcc/avr/8.4.0/../../../../avr/lib/avr5\libatmega32u4.a
END GROUP
                0x0000000000020000                __TEXT_REGION_LENGTH__ = DEFINED (__TEXT_REGION_LENGTH__)?__TEXT_REGION_LENGTH__:0x20000
                0x000000000000ffa0                __DATA_REGION_LENGTH__ = DEFINED (__DATA_REGION_LENGTH__)?__DATA_REGION_LENGTH__:0xffa0
                0x0000000000010000                __EEPROM_REGION_LENGTH__ = DEFINED (__EEPROM_REGION_LENGTH__)?__EEPROM_REGION_LENGTH__:0x10000
                0x0000000000000400                __FUSE_REGION_LENGTH__ = DEFINED (__FUSE_REGION_LENGTH__)?__FUSE_REGION_LENGTH__:0x400
                0x0000000000000400                __LOCK_REGION_LENGTH__ = DEFINED (__LOCK_REGION_LENGTH__)?__LOCK_REGION_LENGTH__:0x400
                0x0000000000000400                __SIGNATURE_REGION_LENGTH__ = DEFINED (__SIGNATURE_REGION_LENGTH__)?__SIGNATURE_REGION_LENGTH__:0x400
                0x0000000000000400                __USER_SIGNATURE_REGION_LENGTH__ = DEFINED (__USER_SIGNATURE_REGION_LENGTH__)?__USER_SIGNATURE_REGION_LENGTH__:0x400

.hash
 *(.hash)

.dynsym
 *(.dynsym)

.dynstr
 *(.dynstr)

.gnu.version
 *(.gnu.version)

.gnu.version_d
 *(.gnu.version_d)

.gnu.version_r
 *(.gnu.version_r)

.rel.init
 *(.rel.init)

.rela.init
 *(.rela.init)

.rel.text
 *(.rel.text)
 *(.rel.text.*)
 *(.rel.gnu.linkonce.t*)

.rela.text
 *(.rela.text)
 *(.rela.text.*)
 *(.rela.gnu.linkonce.t*)

.rel.fini
 *(.rel.fini)

.rela.fini
 *(.rela.fini)

.rel.rodata
 *(.rel.rodata)
 *(.rel.rodata.*)
 *(.rel.gnu.linkonce.r*)

.rela.rodata
 *(.rela.rodata)
 *(.rela.rodata.*)
 *(.rela.gnu.linkonce.r*)

.rel.data
 *(.rel.data)
 *(.rel.data.*)
 *(.rel.gnu.linkonce.d*)

.rela.data
 *(.rela.data)
 *(.rela.data.*)
 *(.rela.gnu.linkonce.d*)

.rel.ctors
 *(.rel.ctors)

.rela.ctors
 *(.rela.ctors)

.rel.dtors
 *(.rel.dtors)

.rela.dtors
 *(.rela.dtors)

.rel.got
 *(.rel.got)

.rela.got
 *(.rela.got)

.rel.bss
 *(.rel.bss)

.rela.bss
 *(.rela.bss)

.rel.plt
 *(.rel.plt)

.rela.plt
 *(.rela.plt)

.text           0x0000000000000000     0x5dfc
 *(.vectors)
 .vectors       0x0000000000000000       0xac e:/qmk_msys/mingw64/bin/../lib/gcc/avr/8.4.0/../../../../avr/lib/avr5/crtatmega32u4.o
                0x0000000000000000                __vector_default
                0x0000000000000000                __vectors
 *(.vectors)
 *(.progmem.gcc*)
                0x00000000000000ac                . = ALIGN (0x2)
                0x00000000000000ac                __trampolines_start = .
 *(.trampolines)
 .trampolines   0x00000000000000ac        0x0 linker stubs
 *(.trampolines*)
                0x00000000000000ac                __trampolines_end = .
 *libprintf_flt.a:*(.progmem.data)
 *libc.a:*(.progmem.data)
 *(.progmem.*)
 .progmem.data.keymaps
                0x00000000000000ac       0xa2 .build/obj_atelier6k_default/keyboards/atelier6k/keymaps/default/keymap.o
                0x00000000000000ac                keymaps
 .progmem.data.ascii_to_keycode_lut
                0x000000000000014e       0x80 .build/obj_atelier6k_default/quantum/send_string.o
                0x000000000000014e                ascii_to_keycode_lut
 .progmem.data.ascii_to_dead_lut
                0x00000000000001ce       0x10 .build/obj_atelier6k_default/quantum/send_string.o
                0x00000000000001ce                ascii_to_dead_lut
 .progmem.data.ascii_to_altgr_lut
                0x00000000000001de       0x10 .build/obj_atelier6k_default/quantum/send_string.o
                0x00000000000001de                ascii_to_altgr_lut
 .progmem.data.ascii_to_shift_lut
                0x00000000000001ee       0x10 .build/obj_atelier6k_default/quantum/send_string.o
                0x00000000000001ee                ascii_to_shift_lut
 .progmem.data.RGBLED_RGBTEST_INTERVALS
                0x00000000000001fe        0x2 .build/obj_atelier6k_default/quantum/rgblight/rgblight.o
                0x00000000000001fe                RGBLED_RGBTEST_INTERVALS
 .progmem.data.RGBLED_KNIGHT_INTERVALS
                0x0000000000000200        0x3 .build/obj_atelier6k_default/quantum/rgblight/rgblight.o
                0x0000000000000200                RGBLED_KNIGHT_INTERVALS
 .progmem.data.RGBLED_SNAKE_INTERVALS
                0x0000000000000203        0x3 .build/obj_atelier6k_default/quantum/rgblight/rgblight.o
                0x0000000000000203                RGBLED_SNAKE_INTERVALS
 .progmem.data.RGBLED_RAINBOW_SWIRL_INTERVALS
                0x0000000000000206        0x3 .build/obj_atelier6k_default/quantum/rgblight/rgblight.o
                0x0000000000000206                RGBLED_RAINBOW_SWIRL_INTERVALS
 .progmem.data.RGBLED_RAINBOW_MOOD_INTERVALS
                0x0000000000000209        0x3 .build/obj_atelier6k_default/quantum/rgblight/rgblight.o
                0x0000000000000209                RGBLED_RAINBOW_MOOD_INTERVALS
 .progmem.data.RGBLED_BREATHING_INTERVALS
                0x000000000000020c        0x4 .build/obj_atelier6k_default/quantum/rgblight/rgblight.o
                0x000000000000020c                RGBLED_BREATHING_INTERVALS
 .progmem.data.rgblight_effect_breathe_table
                0x0000000000000210      0x100 .build/obj_atelier6k_default/quantum/rgblight/rgblight.o
                0x0000000000000210                rgblight_effect_breathe_table
 .progmem.data.RGBLED_GRADIENT_RANGES
                0x0000000000000310        0x5 .build/obj_atelier6k_default/quantum/rgblight/rgblight.o
                0x0000000000000310                RGBLED_GRADIENT_RANGES
 .progmem.data.CIE1931_CURVE
                0x0000000000000315      0x100 .build/obj_atelier6k_default/quantum/led_tables.o
                0x0000000000000315                CIE1931_CURVE
 .progmem.data.ProductString
                0x0000000000000415       0x12 .build/obj_atelier6k_default/usb_descriptor.o
                0x0000000000000415                ProductString
 .progmem.data.ManufacturerString
                0x0000000000000427       0x16 .build/obj_atelier6k_default/usb_descriptor.o
                0x0000000000000427                ManufacturerString
 .progmem.data.LanguageString
                0x000000000000043d        0x4 .build/obj_atelier6k_default/usb_descriptor.o
                0x000000000000043d                LanguageString
 .progmem.data.ConfigurationDescriptor
                0x0000000000000441       0x5b .build/obj_atelier6k_default/usb_descriptor.o
                0x0000000000000441                ConfigurationDescriptor
 .progmem.data.DeviceDescriptor
                0x000000000000049c       0x12 .build/obj_atelier6k_default/usb_descriptor.o
                0x000000000000049c                DeviceDescriptor
 .progmem.data.RawReport
                0x00000000000004ae       0x22 .build/obj_atelier6k_default/usb_descriptor.o
                0x00000000000004ae                RawReport
 .progmem.data.SharedReport
                0x00000000000004d0       0x84 .build/obj_atelier6k_default/usb_descriptor.o
                0x00000000000004d0                SharedReport
 .progmem.data.KeyboardReport
                0x0000000000000554       0x40 .build/obj_atelier6k_default/usb_descriptor.o
                0x0000000000000554                KeyboardReport
                0x0000000000000594                . = ALIGN (0x2)
 *(.lowtext)
 *(.lowtext*)
                0x0000000000000594                __ctors_start = .
 *(.ctors)
                0x0000000000000594                __ctors_end = .
                0x0000000000000594                __dtors_start = .
 *(.dtors)
                0x0000000000000594                __dtors_end = .
 SORT_BY_NAME(*)(.ctors)
 SORT_BY_NAME(*)(.dtors)
 *(.init0)
 .init0         0x0000000000000594        0x0 e:/qmk_msys/mingw64/bin/../lib/gcc/avr/8.4.0/../../../../avr/lib/avr5/crtatmega32u4.o
                0x0000000000000594                __init
 *(.init0)
 *(.init1)
 *(.init1)
 *(.init2)
 .init2         0x0000000000000594        0xc e:/qmk_msys/mingw64/bin/../lib/gcc/avr/8.4.0/../../../../avr/lib/avr5/crtatmega32u4.o
 *(.init2)
 *(.init3)
 .init3         0x00000000000005a0       0x36 .build/obj_atelier6k_default/platforms/avr/bootloaders/dfu.o
                0x00000000000005a0                bootloader_jump_after_watchdog_reset
 *(.init3)
 *(.init4)
 .init4         0x00000000000005d6       0x16 e:/qmk_msys/mingw64/bin/../lib/gcc/avr/8.4.0/avr5\libgcc.a(_copy_data.o)
                0x00000000000005d6                __do_copy_data
 .init4         0x00000000000005ec       0x10 e:/qmk_msys/mingw64/bin/../lib/gcc/avr/8.4.0/avr5\libgcc.a(_clear_bss.o)
                0x00000000000005ec                __do_clear_bss
 *(.init4)
 *(.init5)
 *(.init5)
 *(.init6)
 *(.init6)
 *(.init7)
 *(.init7)
 *(.init8)
 *(.init8)
 *(.init9)
 .init9         0x00000000000005fc        0x8 e:/qmk_msys/mingw64/bin/../lib/gcc/avr/8.4.0/../../../../avr/lib/avr5/crtatmega32u4.o
 *(.init9)
 *(.text)
 .text          0x0000000000000604        0x4 e:/qmk_msys/mingw64/bin/../lib/gcc/avr/8.4.0/../../../../avr/lib/avr5/crtatmega32u4.o
                0x0000000000000604                __vector_38
                0x0000000000000604                __vector_22
                0x0000000000000604                __vector_28
                0x0000000000000604                __vector_1
                0x0000000000000604                __vector_32
                0x0000000000000604                __vector_34
                0x0000000000000604                __vector_24
                0x0000000000000604                __bad_interrupt
                0x0000000000000604                __vector_6
                0x0000000000000604                __vector_31
                0x0000000000000604                __vector_35
                0x0000000000000604                __vector_39
                0x0000000000000604                __vector_3
                0x0000000000000604                __vector_23
                0x0000000000000604                __vector_30
                0x0000000000000604                __vector_25
                0x0000000000000604                __vector_13
                0x0000000000000604                __vector_19
                0x0000000000000604                __vector_7
                0x0000000000000604                __vector_41
                0x0000000000000604                __vector_27
                0x0000000000000604                __vector_5
                0x0000000000000604                __vector_33
                0x0000000000000604                __vector_37
                0x0000000000000604                __vector_4
                0x0000000000000604                __vector_9
                0x0000000000000604                __vector_2
                0x0000000000000604                __vector_15
                0x0000000000000604                __vector_36
                0x0000000000000604                __vector_29
                0x0000000000000604                __vector_40
                0x0000000000000604                __vector_8
                0x0000000000000604                __vector_26
                0x0000000000000604                __vector_14
                0x0000000000000604                __vector_16
                0x0000000000000604                __vector_18
                0x0000000000000604                __vector_42
                0x0000000000000608                . = ALIGN (0x2)
 *(.text.*)
 .text.matrix_init_user
                0x0000000000000608        0x2 .build/obj_atelier6k_default/keyboards/atelier6k/keymaps/default/keymap.o
                0x0000000000000608                matrix_init_user
 .text.matrix_scan_user
                0x000000000000060a        0x2 .build/obj_atelier6k_default/keyboards/atelier6k/keymaps/default/keymap.o
                0x000000000000060a                matrix_scan_user
 .text.process_record_user
                0x000000000000060c        0x4 .build/obj_atelier6k_default/keyboards/atelier6k/keymaps/default/keymap.o
                0x000000000000060c                process_record_user
 .text.process_action_kb
                0x0000000000000610        0x4 .build/obj_atelier6k_default/quantum/quantum.o
                0x0000000000000610                process_action_kb
 .text.process_record_kb
                0x0000000000000614        0x6 .build/obj_atelier6k_default/quantum/quantum.o
                0x0000000000000614                process_record_kb
 .text.post_process_record_user
                0x000000000000061a        0x2 .build/obj_atelier6k_default/quantum/quantum.o
                0x000000000000061a                post_process_record_user
 .text.post_process_record_kb
                0x000000000000061c        0x6 .build/obj_atelier6k_default/quantum/quantum.o
                0x000000000000061c                post_process_record_kb
 .text.get_event_keycode
                0x0000000000000622       0x58 .build/obj_atelier6k_default/quantum/quantum.o
                0x0000000000000622                get_event_keycode
 .text.get_record_keycode
                0x000000000000067a       0x14 .build/obj_atelier6k_default/quantum/quantum.o
                0x000000000000067a                get_record_keycode
 .text.pre_process_record_quantum
                0x000000000000068e        0x4 .build/obj_atelier6k_default/quantum/quantum.o
                0x000000000000068e                pre_process_record_quantum
 .text.post_process_record_quantum
                0x0000000000000692       0x18 .build/obj_atelier6k_default/quantum/quantum.o
                0x0000000000000692                post_process_record_quantum
 .text.update_tri_layer_state
                0x00000000000006aa       0x3a .build/obj_atelier6k_default/quantum/quantum.o
                0x00000000000006aa                update_tri_layer_state
 .text.update_tri_layer
                0x00000000000006e4       0x14 .build/obj_atelier6k_default/quantum/quantum.o
                0x00000000000006e4                update_tri_layer
 .text.matrix_init_quantum
                0x00000000000006f8        0x6 .build/obj_atelier6k_default/quantum/quantum.o
                0x00000000000006f8                matrix_init_quantum
 .text.matrix_scan_quantum
                0x00000000000006fe        0x6 .build/obj_atelier6k_default/quantum/quantum.o
                0x00000000000006fe                matrix_scan_quantum
 .text.shutdown_user
                0x0000000000000704        0x2 .build/obj_atelier6k_default/quantum/quantum.o
                0x0000000000000704                shutdown_user
 .text.shutdown_quantum
                0x0000000000000706       0x1c .build/obj_atelier6k_default/quantum/quantum.o
                0x0000000000000706                shutdown_quantum
 .text.reset_keyboard
                0x0000000000000722        0xa .build/obj_atelier6k_default/quantum/quantum.o
                0x0000000000000722                reset_keyboard
 .text.soft_reset_keyboard
                0x000000000000072c        0xa .build/obj_atelier6k_default/quantum/quantum.o
                0x000000000000072c                soft_reset_keyboard
 .text.process_record_quantum
                0x0000000000000736       0xcc .build/obj_atelier6k_default/quantum/quantum.o
                0x0000000000000736                process_record_quantum
 .text.suspend_power_down_quantum
                0x0000000000000802       0x10 .build/obj_atelier6k_default/quantum/quantum.o
                0x0000000000000802                suspend_power_down_quantum
 .text.suspend_wakeup_init_quantum
                0x0000000000000812        0xe .build/obj_atelier6k_default/quantum/quantum.o
                0x0000000000000812                suspend_wakeup_init_quantum
 .text.send_char
                0x0000000000000820       0xba .build/obj_atelier6k_default/quantum/send_string.o
                0x0000000000000820                send_char
 .text.send_string_with_delay
                0x00000000000008da       0xcc .build/obj_atelier6k_default/quantum/send_string.o
                0x00000000000008da                send_string_with_delay
 .text.send_string
                0x00000000000009a6        0x8 .build/obj_atelier6k_default/quantum/send_string.o
                0x00000000000009a6                send_string
 .text.led_set_user
                0x00000000000009ae        0x2 .build/obj_atelier6k_default/quantum/led.o
                0x00000000000009ae                led_set_user
 .text.led_set_kb
                0x00000000000009b0        0x6 .build/obj_atelier6k_default/quantum/led.o
                0x00000000000009b0                led_set_kb
 .text.led_update_user
                0x00000000000009b6        0x4 .build/obj_atelier6k_default/quantum/led.o
                0x00000000000009b6                led_update_user
 .text.led_update_kb
                0x00000000000009ba        0x6 .build/obj_atelier6k_default/quantum/led.o
                0x00000000000009ba                led_update_kb
 .text.led_init_ports
                0x00000000000009c0        0x2 .build/obj_atelier6k_default/quantum/led.o
                0x00000000000009c0                led_init_ports
 .text.led_set  0x00000000000009c2       0x12 .build/obj_atelier6k_default/quantum/led.o
                0x00000000000009c2                led_set
 .text.led_suspend
                0x00000000000009d4        0x8 .build/obj_atelier6k_default/quantum/led.o
                0x00000000000009d4                led_suspend
 .text.led_wakeup
                0x00000000000009dc        0xa .build/obj_atelier6k_default/quantum/led.o
                0x00000000000009dc                led_wakeup
 .text.led_task
                0x00000000000009e6       0x16 .build/obj_atelier6k_default/quantum/led.o
                0x00000000000009e6                led_task
 .text.action_exec
                0x00000000000009fc       0x6a .build/obj_atelier6k_default/quantum/action.o
                0x00000000000009fc                action_exec
 .text.process_record_tap_hint
                0x0000000000000a66        0xc .build/obj_atelier6k_default/quantum/action.o
                0x0000000000000a66                process_record_tap_hint
 .text.register_code
                0x0000000000000a72       0xee .build/obj_atelier6k_default/quantum/action.o
                0x0000000000000a72                register_code
 .text.unregister_code
                0x0000000000000b60       0xb2 .build/obj_atelier6k_default/quantum/action.o
                0x0000000000000b60                unregister_code
 .text.tap_code_delay
                0x0000000000000c12       0x30 .build/obj_atelier6k_default/quantum/action.o
                0x0000000000000c12                tap_code_delay
 .text.tap_code
                0x0000000000000c42       0x12 .build/obj_atelier6k_default/quantum/action.o
                0x0000000000000c42                tap_code
 .text.register_mods
                0x0000000000000c54        0xe .build/obj_atelier6k_default/quantum/action.o
                0x0000000000000c54                register_mods
 .text.unregister_mods
                0x0000000000000c62        0xe .build/obj_atelier6k_default/quantum/action.o
                0x0000000000000c62                unregister_mods
 .text.process_action
                0x0000000000000c70      0x3a4 .build/obj_atelier6k_default/quantum/action.o
                0x0000000000000c70                process_action
 .text.process_record_handler
                0x0000000000001014       0x30 .build/obj_atelier6k_default/quantum/action.o
                0x0000000000001014                process_record_handler
 .text.process_record
                0x0000000000001044       0x54 .build/obj_atelier6k_default/quantum/action.o
                0x0000000000001044                process_record
 .text.clear_keyboard_but_mods_and_keys
                0x0000000000001098       0x12 .build/obj_atelier6k_default/quantum/action.o
                0x0000000000001098                clear_keyboard_but_mods_and_keys
 .text.clear_keyboard_but_mods
                0x00000000000010aa        0xa .build/obj_atelier6k_default/quantum/action.o
                0x00000000000010aa                clear_keyboard_but_mods
 .text.clear_keyboard
                0x00000000000010b4        0xa .build/obj_atelier6k_default/quantum/action.o
                0x00000000000010b4                clear_keyboard
 .text.is_tap_action
                0x00000000000010be       0x36 .build/obj_atelier6k_default/quantum/action.o
                0x00000000000010be                is_tap_action
 .text.is_tap_record
                0x00000000000010f4       0x10 .build/obj_atelier6k_default/quantum/action.o
                0x00000000000010f4                is_tap_record
 .text.debug_event
                0x0000000000001104       0x14 .build/obj_atelier6k_default/quantum/action.o
                0x0000000000001104                debug_event
 .text.debug_record
                0x0000000000001118       0x14 .build/obj_atelier6k_default/quantum/action.o
                0x0000000000001118                debug_record
 .text.default_layer_state_set_user
                0x000000000000112c        0x2 .build/obj_atelier6k_default/quantum/action_layer.o
                0x000000000000112c                default_layer_state_set_user
 .text.default_layer_state_set_kb
                0x000000000000112e        0x6 .build/obj_atelier6k_default/quantum/action_layer.o
                0x000000000000112e                default_layer_state_set_kb
 .text.default_layer_state_set
                0x0000000000001134        0xe .build/obj_atelier6k_default/quantum/action_layer.o
 .text.default_layer_debug
                0x0000000000001142        0x2 .build/obj_atelier6k_default/quantum/action_layer.o
                0x0000000000001142                default_layer_debug
 .text.default_layer_set
                0x0000000000001144        0x6 .build/obj_atelier6k_default/quantum/action_layer.o
                0x0000000000001144                default_layer_set
 .text.default_layer_or
                0x000000000000114a        0xc .build/obj_atelier6k_default/quantum/action_layer.o
                0x000000000000114a                default_layer_or
 .text.default_layer_and
                0x0000000000001156        0xc .build/obj_atelier6k_default/quantum/action_layer.o
                0x0000000000001156                default_layer_and
 .text.default_layer_xor
                0x0000000000001162        0xc .build/obj_atelier6k_default/quantum/action_layer.o
                0x0000000000001162                default_layer_xor
 .text.layer_state_set_user
                0x000000000000116e        0x6 .build/obj_atelier6k_default/quantum/action_layer.o
                0x000000000000116e                layer_state_set_user
 .text.layer_state_set_kb
                0x0000000000001174        0x6 .build/obj_atelier6k_default/quantum/action_layer.o
                0x0000000000001174                layer_state_set_kb
 .text.layer_state_set
                0x000000000000117a        0xe .build/obj_atelier6k_default/quantum/action_layer.o
                0x000000000000117a                layer_state_set
 .text.layer_clear
                0x0000000000001188        0x8 .build/obj_atelier6k_default/quantum/action_layer.o
                0x0000000000001188                layer_clear
 .text.layer_move
                0x0000000000001190       0x12 .build/obj_atelier6k_default/quantum/action_layer.o
                0x0000000000001190                layer_move
 .text.layer_on
                0x00000000000011a2       0x18 .build/obj_atelier6k_default/quantum/action_layer.o
                0x00000000000011a2                layer_on
 .text.layer_off
                0x00000000000011ba       0x1a .build/obj_atelier6k_default/quantum/action_layer.o
                0x00000000000011ba                layer_off
 .text.layer_invert
                0x00000000000011d4       0x18 .build/obj_atelier6k_default/quantum/action_layer.o
                0x00000000000011d4                layer_invert
 .text.layer_or
                0x00000000000011ec        0xc .build/obj_atelier6k_default/quantum/action_layer.o
                0x00000000000011ec                layer_or
 .text.layer_and
                0x00000000000011f8        0xc .build/obj_atelier6k_default/quantum/action_layer.o
                0x00000000000011f8                layer_and
 .text.layer_xor
                0x0000000000001204        0xc .build/obj_atelier6k_default/quantum/action_layer.o
                0x0000000000001204                layer_xor
 .text.layer_debug
                0x0000000000001210        0x2 .build/obj_atelier6k_default/quantum/action_layer.o
                0x0000000000001210                layer_debug
 .text.update_source_layers_cache_impl
                0x0000000000001212       0x5a .build/obj_atelier6k_default/quantum/action_layer.o
                0x0000000000001212                update_source_layers_cache_impl
 .text.read_source_layers_cache_impl
                0x000000000000126c       0x4e .build/obj_atelier6k_default/quantum/action_layer.o
                0x000000000000126c                read_source_layers_cache_impl
 .text.update_source_layers_cache
                0x00000000000012ba       0x24 .build/obj_atelier6k_default/quantum/action_layer.o
                0x00000000000012ba                update_source_layers_cache
 .text.read_source_layers_cache
                0x00000000000012de       0x24 .build/obj_atelier6k_default/quantum/action_layer.o
                0x00000000000012de                read_source_layers_cache
 .text.layer_switch_get_layer
                0x0000000000001302       0x5a .build/obj_atelier6k_default/quantum/action_layer.o
                0x0000000000001302                layer_switch_get_layer
 .text.layer_switch_get_action
                0x000000000000135c       0x16 .build/obj_atelier6k_default/quantum/action_layer.o
                0x000000000000135c                layer_switch_get_action
 .text.store_or_get_action
                0x0000000000001372       0x46 .build/obj_atelier6k_default/quantum/action_layer.o
                0x0000000000001372                store_or_get_action
 .text.debug_waiting_buffer
                0x00000000000013b8       0x42 .build/obj_atelier6k_default/quantum/action_tapping.o
 .text.debug_tapping_key
                0x00000000000013fa       0x1e .build/obj_atelier6k_default/quantum/action_tapping.o
 .text.waiting_buffer_scan_tap
                0x0000000000001418       0xaa .build/obj_atelier6k_default/quantum/action_tapping.o
 .text.process_tapping
                0x00000000000014c2      0x30e .build/obj_atelier6k_default/quantum/action_tapping.o
 .text.action_tapping_process
                0x00000000000017d0      0x11e .build/obj_atelier6k_default/quantum/action_tapping.o
                0x00000000000017d0                action_tapping_process
 .text.add_key  0x00000000000018ee       0x10 .build/obj_atelier6k_default/quantum/action_util.o
                0x00000000000018ee                add_key
 .text.del_key  0x00000000000018fe       0x10 .build/obj_atelier6k_default/quantum/action_util.o
                0x00000000000018fe                del_key
 .text.clear_keys
                0x000000000000190e        0xe .build/obj_atelier6k_default/quantum/action_util.o
                0x000000000000190e                clear_keys
 .text.get_oneshot_layer
                0x000000000000191c        0xc .build/obj_atelier6k_default/quantum/action_util.o
                0x000000000000191c                get_oneshot_layer
 .text.get_oneshot_layer_state
                0x0000000000001928        0x8 .build/obj_atelier6k_default/quantum/action_util.o
                0x0000000000001928                get_oneshot_layer_state
 .text.is_oneshot_layer_active
                0x0000000000001930        0xe .build/obj_atelier6k_default/quantum/action_util.o
                0x0000000000001930                is_oneshot_layer_active
 .text.get_mods
                0x000000000000193e        0x6 .build/obj_atelier6k_default/quantum/action_util.o
                0x000000000000193e                get_mods
 .text.add_mods
                0x0000000000001944        0xc .build/obj_atelier6k_default/quantum/action_util.o
                0x0000000000001944                add_mods
 .text.del_mods
                0x0000000000001950        0xe .build/obj_atelier6k_default/quantum/action_util.o
                0x0000000000001950                del_mods
 .text.clear_mods
                0x000000000000195e        0x6 .build/obj_atelier6k_default/quantum/action_util.o
                0x000000000000195e                clear_mods
 .text.add_weak_mods
                0x0000000000001964        0xc .build/obj_atelier6k_default/quantum/action_util.o
                0x0000000000001964                add_weak_mods
 .text.del_weak_mods
                0x0000000000001970        0xe .build/obj_atelier6k_default/quantum/action_util.o
                0x0000000000001970                del_weak_mods
 .text.clear_weak_mods
                0x000000000000197e        0x6 .build/obj_atelier6k_default/quantum/action_util.o
                0x000000000000197e                clear_weak_mods
 .text.get_oneshot_mods
                0x0000000000001984        0x6 .build/obj_atelier6k_default/quantum/action_util.o
                0x0000000000001984                get_oneshot_mods
 .text.oneshot_mods_changed_user
                0x000000000000198a        0x2 .build/obj_atelier6k_default/quantum/action_util.o
                0x000000000000198a                oneshot_mods_changed_user
 .text.oneshot_mods_changed_kb
                0x000000000000198c        0x6 .build/obj_atelier6k_default/quantum/action_util.o
                0x000000000000198c                oneshot_mods_changed_kb
 .text.set_oneshot_mods
                0x0000000000001992       0x1a .build/obj_atelier6k_default/quantum/action_util.o
                0x0000000000001992                set_oneshot_mods
 .text.clear_oneshot_mods
                0x00000000000019ac       0x14 .build/obj_atelier6k_default/quantum/action_util.o
                0x00000000000019ac                clear_oneshot_mods
 .text.send_keyboard_report
                0x00000000000019c0       0x82 .build/obj_atelier6k_default/quantum/action_util.o
                0x00000000000019c0                send_keyboard_report
 .text.oneshot_layer_changed_user
                0x0000000000001a42        0x2 .build/obj_atelier6k_default/quantum/action_util.o
                0x0000000000001a42                oneshot_layer_changed_user
 .text.oneshot_layer_changed_kb
                0x0000000000001a44        0x6 .build/obj_atelier6k_default/quantum/action_util.o
                0x0000000000001a44                oneshot_layer_changed_kb
 .text.set_oneshot_layer
                0x0000000000001a4a       0x30 .build/obj_atelier6k_default/quantum/action_util.o
                0x0000000000001a4a                set_oneshot_layer
 .text.reset_oneshot_layer
                0x0000000000001a7a        0xc .build/obj_atelier6k_default/quantum/action_util.o
                0x0000000000001a7a                reset_oneshot_layer
 .text.clear_oneshot_layer_state
                0x0000000000001a86       0x38 .build/obj_atelier6k_default/quantum/action_util.o
                0x0000000000001a86                clear_oneshot_layer_state
 .text.oneshot_set
                0x0000000000001abe       0x2a .build/obj_atelier6k_default/quantum/action_util.o
                0x0000000000001abe                oneshot_set
 .text.oneshot_toggle
                0x0000000000001ae8       0x14 .build/obj_atelier6k_default/quantum/action_util.o
                0x0000000000001ae8                oneshot_toggle
 .text.oneshot_enable
                0x0000000000001afc        0x8 .build/obj_atelier6k_default/quantum/action_util.o
                0x0000000000001afc                oneshot_enable
 .text.oneshot_disable
                0x0000000000001b04        0x8 .build/obj_atelier6k_default/quantum/action_util.o
                0x0000000000001b04                oneshot_disable
 .text.eeconfig_disable
                0x0000000000001b0c        0xe .build/obj_atelier6k_default/quantum/eeconfig.o
                0x0000000000001b0c                eeconfig_disable
 .text.eeconfig_is_enabled
                0x0000000000001b1a       0x18 .build/obj_atelier6k_default/quantum/eeconfig.o
                0x0000000000001b1a                eeconfig_is_enabled
 .text.eeconfig_read_debug
                0x0000000000001b32        0xa .build/obj_atelier6k_default/quantum/eeconfig.o
                0x0000000000001b32                eeconfig_read_debug
 .text.eeconfig_read_default_layer
                0x0000000000001b3c        0xa .build/obj_atelier6k_default/quantum/eeconfig.o
                0x0000000000001b3c                eeconfig_read_default_layer
 .text.eeconfig_read_keymap
                0x0000000000001b46       0x1c .build/obj_atelier6k_default/quantum/eeconfig.o
                0x0000000000001b46                eeconfig_read_keymap
 .text.eeconfig_update_keymap
                0x0000000000001b62       0x1c .build/obj_atelier6k_default/quantum/eeconfig.o
                0x0000000000001b62                eeconfig_update_keymap
 .text.eeconfig_update_kb
                0x0000000000001b7e        0xe .build/obj_atelier6k_default/quantum/eeconfig.o
                0x0000000000001b7e                eeconfig_update_kb
 .text.eeconfig_update_user
                0x0000000000001b8c        0xe .build/obj_atelier6k_default/quantum/eeconfig.o
                0x0000000000001b8c                eeconfig_update_user
 .text.eeconfig_init_user
                0x0000000000001b9a        0xc .build/obj_atelier6k_default/quantum/eeconfig.o
                0x0000000000001b9a                eeconfig_init_user
 .text.eeconfig_init_kb
                0x0000000000001ba6       0x10 .build/obj_atelier6k_default/quantum/eeconfig.o
                0x0000000000001ba6                eeconfig_init_kb
 .text.eeconfig_init_quantum
                0x0000000000001bb6       0xbe .build/obj_atelier6k_default/quantum/eeconfig.o
                0x0000000000001bb6                eeconfig_init_quantum
 .text.eeconfig_init
                0x0000000000001c74        0x6 .build/obj_atelier6k_default/quantum/eeconfig.o
                0x0000000000001c74                eeconfig_init
 .text.eeconfig_update_handedness
                0x0000000000001c7a        0xc .build/obj_atelier6k_default/quantum/eeconfig.o
                0x0000000000001c7a                eeconfig_update_handedness
 .text.last_matrix_activity_trigger
                0x0000000000001c86       0x26 .build/obj_atelier6k_default/quantum/keyboard.o
                0x0000000000001c86                last_matrix_activity_trigger
 .text.matrix_setup
                0x0000000000001cac        0x2 .build/obj_atelier6k_default/quantum/keyboard.o
                0x0000000000001cac                matrix_setup
 .text.keyboard_pre_init_user
                0x0000000000001cae        0x2 .build/obj_atelier6k_default/quantum/keyboard.o
                0x0000000000001cae                keyboard_pre_init_user
 .text.keyboard_pre_init_kb
                0x0000000000001cb0        0x6 .build/obj_atelier6k_default/quantum/keyboard.o
                0x0000000000001cb0                keyboard_pre_init_kb
 .text.keyboard_post_init_user
                0x0000000000001cb6        0x2 .build/obj_atelier6k_default/quantum/keyboard.o
                0x0000000000001cb6                keyboard_post_init_user
 .text.keyboard_post_init_kb
                0x0000000000001cb8        0x6 .build/obj_atelier6k_default/quantum/keyboard.o
                0x0000000000001cb8                keyboard_post_init_kb
 .text.keyboard_setup
                0x0000000000001cbe       0x12 .build/obj_atelier6k_default/quantum/keyboard.o
                0x0000000000001cbe                keyboard_setup
 .text.is_keyboard_master
                0x0000000000001cd0        0x4 .build/obj_atelier6k_default/quantum/keyboard.o
                0x0000000000001cd0                is_keyboard_master
 .text.should_process_keypress
                0x0000000000001cd4        0x6 .build/obj_atelier6k_default/quantum/keyboard.o
                0x0000000000001cd4                should_process_keypress
 .text.housekeeping_task_kb
                0x0000000000001cda        0x2 .build/obj_atelier6k_default/quantum/keyboard.o
                0x0000000000001cda                housekeeping_task_kb
 .text.housekeeping_task_user
                0x0000000000001cdc        0x2 .build/obj_atelier6k_default/quantum/keyboard.o
                0x0000000000001cdc                housekeeping_task_user
 .text.housekeeping_task
                0x0000000000001cde        0xa .build/obj_atelier6k_default/quantum/keyboard.o
                0x0000000000001cde                housekeeping_task
 .text.quantum_init
                0x0000000000001ce8        0xe .build/obj_atelier6k_default/quantum/keyboard.o
                0x0000000000001ce8                quantum_init
 .text.keyboard_init
                0x0000000000001cf6       0x34 .build/obj_atelier6k_default/quantum/keyboard.o
                0x0000000000001cf6                keyboard_init
 .text.matrix_scan_task
                0x0000000000001d2a       0xe8 .build/obj_atelier6k_default/quantum/keyboard.o
                0x0000000000001d2a                matrix_scan_task
 .text.keyboard_task
                0x0000000000001e12       0x16 .build/obj_atelier6k_default/quantum/keyboard.o
                0x0000000000001e12                keyboard_task
 .text.action_for_keycode
                0x0000000000001e28      0x1ac .build/obj_atelier6k_default/quantum/keymap_common.o
                0x0000000000001e28                action_for_keycode
 .text.action_for_key
                0x0000000000001fd4        0xa .build/obj_atelier6k_default/quantum/keymap_common.o
                0x0000000000001fd4                action_for_key
 .text.keycode_config
                0x0000000000001fde      0x12e .build/obj_atelier6k_default/quantum/keycode_config.o
                0x0000000000001fde                keycode_config
 .text.mod_config
                0x000000000000210c       0x86 .build/obj_atelier6k_default/quantum/keycode_config.o
                0x000000000000210c                mod_config
 .text.sendchar
                0x0000000000002192        0x4 .build/obj_atelier6k_default/quantum/logging/sendchar.o
                0x0000000000002192                sendchar
 .text.bootmagic_lite_reset_eeprom
                0x0000000000002196        0x6 .build/obj_atelier6k_default/quantum/bootmagic/bootmagic_lite.o
                0x0000000000002196                bootmagic_lite_reset_eeprom
 .text.bootmagic_lite
                0x000000000000219c       0x2e .build/obj_atelier6k_default/quantum/bootmagic/bootmagic_lite.o
                0x000000000000219c                bootmagic_lite
 .text.bootmagic
                0x00000000000021ca        0x6 .build/obj_atelier6k_default/quantum/bootmagic/bootmagic_lite.o
                0x00000000000021ca                bootmagic
 .text.magic    0x00000000000021d0       0x36 .build/obj_atelier6k_default/quantum/bootmagic/magic.o
                0x00000000000021d0                magic
 .text.matrix_init_kb
                0x0000000000002206        0x6 .build/obj_atelier6k_default/quantum/matrix_common.o
                0x0000000000002206                matrix_init_kb
 .text.matrix_scan_kb
                0x000000000000220c        0x6 .build/obj_atelier6k_default/quantum/matrix_common.o
                0x000000000000220c                matrix_scan_kb
 .text.matrix_get_row
                0x0000000000002212        0xc .build/obj_atelier6k_default/quantum/matrix_common.o
                0x0000000000002212                matrix_get_row
 .text.matrix_print
                0x000000000000221e        0x2 .build/obj_atelier6k_default/quantum/matrix_common.o
                0x000000000000221e                matrix_print
 .text.matrix_io_delay
                0x0000000000002220        0x8 .build/obj_atelier6k_default/quantum/matrix_common.o
                0x0000000000002220                matrix_io_delay
 .text.matrix_output_select_delay
                0x0000000000002228        0x4 .build/obj_atelier6k_default/quantum/matrix_common.o
                0x0000000000002228                matrix_output_select_delay
 .text.matrix_output_unselect_delay
                0x000000000000222c        0x6 .build/obj_atelier6k_default/quantum/matrix_common.o
                0x000000000000222c                matrix_output_unselect_delay
 .text.setPinInputHigh_atomic
                0x0000000000002232       0x2e .build/obj_atelier6k_default/quantum/matrix.o
 .text.matrix_init_pins
                0x0000000000002260       0x26 .build/obj_atelier6k_default/quantum/matrix.o
                0x0000000000002260                matrix_init_pins
 .text.matrix_read_cols_on_row
                0x0000000000002286       0xbe .build/obj_atelier6k_default/quantum/matrix.o
                0x0000000000002286                matrix_read_cols_on_row
 .text.matrix_init
                0x0000000000002344       0x2c .build/obj_atelier6k_default/quantum/matrix.o
                0x0000000000002344                matrix_init
 .text.matrix_scan
                0x0000000000002370       0x7e .build/obj_atelier6k_default/quantum/matrix.o
                0x0000000000002370                matrix_scan
 .text.debounce_init
                0x00000000000023ee        0x2 .build/obj_atelier6k_default/quantum/debounce/sym_defer_g.o
                0x00000000000023ee                debounce_init
 .text.debounce
                0x00000000000023f0       0x6a .build/obj_atelier6k_default/quantum/debounce/sym_defer_g.o
                0x00000000000023f0                debounce
 .text.protocol_init
                0x000000000000245a        0xe .build/obj_atelier6k_default/quantum/main.o
                0x000000000000245a                protocol_init
 .text.protocol_task
                0x0000000000002468        0xe .build/obj_atelier6k_default/quantum/main.o
                0x0000000000002468                protocol_task
 .text.startup.main
                0x0000000000002476       0x1a .build/obj_atelier6k_default/quantum/main.o
                0x0000000000002476                main
 .text.move_unit
                0x0000000000002490       0x7c .build/obj_atelier6k_default/quantum/mousekey.o
 .text.wheel_unit
                0x000000000000250c       0x72 .build/obj_atelier6k_default/quantum/mousekey.o
 .text.mousekey_on
                0x000000000000257e       0xb4 .build/obj_atelier6k_default/quantum/mousekey.o
                0x000000000000257e                mousekey_on
 .text.mousekey_off
                0x0000000000002632       0xf2 .build/obj_atelier6k_default/quantum/mousekey.o
                0x0000000000002632                mousekey_off
 .text.mousekey_send
                0x0000000000002724       0x38 .build/obj_atelier6k_default/quantum/mousekey.o
                0x0000000000002724                mousekey_send
 .text.mousekey_task
                0x000000000000275c      0x1ea .build/obj_atelier6k_default/quantum/mousekey.o
                0x000000000000275c                mousekey_task
 .text.mousekey_clear
                0x0000000000002946       0x1c .build/obj_atelier6k_default/quantum/mousekey.o
                0x0000000000002946                mousekey_clear
 .text.hsv_to_rgb_impl
                0x0000000000002962      0x126 .build/obj_atelier6k_default/quantum/color.o
                0x0000000000002962                hsv_to_rgb_impl
 .text.hsv_to_rgb
                0x0000000000002a88        0x8 .build/obj_atelier6k_default/quantum/color.o
                0x0000000000002a88                hsv_to_rgb
 .text.convert_rgb_to_rgbw
                0x0000000000002a90       0x26 .build/obj_atelier6k_default/quantum/color.o
                0x0000000000002a90                convert_rgb_to_rgbw
 .text.rgblight_effect_dummy
                0x0000000000002ab6        0x2 .build/obj_atelier6k_default/quantum/rgblight/rgblight.o
 .text.rgblight_hsv_to_rgb
                0x0000000000002ab8        0x6 .build/obj_atelier6k_default/quantum/rgblight/rgblight.o
                0x0000000000002ab8                rgblight_hsv_to_rgb
 .text.sethsv_raw
                0x0000000000002abe       0x1e .build/obj_atelier6k_default/quantum/rgblight/rgblight.o
                0x0000000000002abe                sethsv_raw
 .text.rgblight_check_config
                0x0000000000002adc       0x1e .build/obj_atelier6k_default/quantum/rgblight/rgblight.o
                0x0000000000002adc                rgblight_check_config
 .text.eeconfig_read_rgblight
                0x0000000000002afa        0xa .build/obj_atelier6k_default/quantum/rgblight/rgblight.o
                0x0000000000002afa                eeconfig_read_rgblight
 .text.eeconfig_update_rgblight
                0x0000000000002b04       0x26 .build/obj_atelier6k_default/quantum/rgblight/rgblight.o
                0x0000000000002b04                eeconfig_update_rgblight
 .text.eeconfig_update_rgblight_current
                0x0000000000002b2a       0x16 .build/obj_atelier6k_default/quantum/rgblight/rgblight.o
                0x0000000000002b2a                eeconfig_update_rgblight_current
 .text.eeconfig_update_rgblight_default
                0x0000000000002b40       0x20 .build/obj_atelier6k_default/quantum/rgblight/rgblight.o
                0x0000000000002b40                eeconfig_update_rgblight_default
 .text.rgblight_get_mode
                0x0000000000002b60       0x10 .build/obj_atelier6k_default/quantum/rgblight/rgblight.o
                0x0000000000002b60                rgblight_get_mode
 .text.rgblight_increase_speed_helper
                0x0000000000002b70       0x28 .build/obj_atelier6k_default/quantum/rgblight/rgblight.o
                0x0000000000002b70                rgblight_increase_speed_helper
 .text.rgblight_increase_speed
                0x0000000000002b98        0x8 .build/obj_atelier6k_default/quantum/rgblight/rgblight.o
                0x0000000000002b98                rgblight_increase_speed
 .text.rgblight_decrease_speed_helper
                0x0000000000002ba0       0x28 .build/obj_atelier6k_default/quantum/rgblight/rgblight.o
                0x0000000000002ba0                rgblight_decrease_speed_helper
 .text.rgblight_decrease_speed
                0x0000000000002bc8        0x8 .build/obj_atelier6k_default/quantum/rgblight/rgblight.o
                0x0000000000002bc8                rgblight_decrease_speed
 .text.rgblight_get_speed
                0x0000000000002bd0        0x6 .build/obj_atelier6k_default/quantum/rgblight/rgblight.o
                0x0000000000002bd0                rgblight_get_speed
 .text.rgblight_set_speed_eeprom_helper
                0x0000000000002bd6       0x1e .build/obj_atelier6k_default/quantum/rgblight/rgblight.o
                0x0000000000002bd6                rgblight_set_speed_eeprom_helper
 .text.rgblight_set_speed_noeeprom
                0x0000000000002bf4        0x8 .build/obj_atelier6k_default/quantum/rgblight/rgblight.o
                0x0000000000002bf4                rgblight_set_speed_noeeprom
 .text.rgblight_get_hue
                0x0000000000002bfc        0x6 .build/obj_atelier6k_default/quantum/rgblight/rgblight.o
                0x0000000000002bfc                rgblight_get_hue
 .text.rgblight_get_sat
                0x0000000000002c02        0x6 .build/obj_atelier6k_default/quantum/rgblight/rgblight.o
                0x0000000000002c02                rgblight_get_sat
 .text.rgblight_get_val
                0x0000000000002c08        0x6 .build/obj_atelier6k_default/quantum/rgblight/rgblight.o
                0x0000000000002c08                rgblight_get_val
 .text.rgblight_call_driver
                0x0000000000002c0e        0x8 .build/obj_atelier6k_default/quantum/rgblight/rgblight.o
                0x0000000000002c0e                rgblight_call_driver
 .text.rgblight_set
                0x0000000000002c16       0x78 .build/obj_atelier6k_default/quantum/rgblight/rgblight.o
                0x0000000000002c16                rgblight_set
 .text.rgblight_setrgb
                0x0000000000002c8e       0x34 .build/obj_atelier6k_default/quantum/rgblight/rgblight.o
                0x0000000000002c8e                rgblight_setrgb
 .text.rgblight_sethsv_noeeprom_old
                0x0000000000002cc2       0x30 .build/obj_atelier6k_default/quantum/rgblight/rgblight.o
                0x0000000000002cc2                rgblight_sethsv_noeeprom_old
 .text.rgblight_effect_breathing
                0x0000000000002cf2       0x28 .build/obj_atelier6k_default/quantum/rgblight/rgblight.o
                0x0000000000002cf2                rgblight_effect_breathing
 .text.rgblight_effect_rainbow_mood
                0x0000000000002d1a       0x20 .build/obj_atelier6k_default/quantum/rgblight/rgblight.o
                0x0000000000002d1a                rgblight_effect_rainbow_mood
 .text.rgblight_effect_rgbtest
                0x0000000000002d3a       0x72 .build/obj_atelier6k_default/quantum/rgblight/rgblight.o
                0x0000000000002d3a                rgblight_effect_rgbtest
 .text.rgblight_sethsv_eeprom_helper
                0x0000000000002dac       0xee .build/obj_atelier6k_default/quantum/rgblight/rgblight.o
                0x0000000000002dac                rgblight_sethsv_eeprom_helper
 .text.rgblight_increase_hue_helper
                0x0000000000002e9a       0x16 .build/obj_atelier6k_default/quantum/rgblight/rgblight.o
                0x0000000000002e9a                rgblight_increase_hue_helper
 .text.rgblight_increase_hue
                0x0000000000002eb0        0x8 .build/obj_atelier6k_default/quantum/rgblight/rgblight.o
                0x0000000000002eb0                rgblight_increase_hue
 .text.rgblight_decrease_hue_helper
                0x0000000000002eb8       0x16 .build/obj_atelier6k_default/quantum/rgblight/rgblight.o
                0x0000000000002eb8                rgblight_decrease_hue_helper
 .text.rgblight_decrease_hue
                0x0000000000002ece        0x8 .build/obj_atelier6k_default/quantum/rgblight/rgblight.o
                0x0000000000002ece                rgblight_decrease_hue
 .text.rgblight_increase_sat_helper
                0x0000000000002ed6       0x1a .build/obj_atelier6k_default/quantum/rgblight/rgblight.o
                0x0000000000002ed6                rgblight_increase_sat_helper
 .text.rgblight_increase_sat
                0x0000000000002ef0        0x8 .build/obj_atelier6k_default/quantum/rgblight/rgblight.o
                0x0000000000002ef0                rgblight_increase_sat
 .text.rgblight_decrease_sat_helper
                0x0000000000002ef8       0x1a .build/obj_atelier6k_default/quantum/rgblight/rgblight.o
                0x0000000000002ef8                rgblight_decrease_sat_helper
 .text.rgblight_decrease_sat
                0x0000000000002f12        0x8 .build/obj_atelier6k_default/quantum/rgblight/rgblight.o
                0x0000000000002f12                rgblight_decrease_sat
 .text.rgblight_increase_val_helper
                0x0000000000002f1a       0x1a .build/obj_atelier6k_default/quantum/rgblight/rgblight.o
                0x0000000000002f1a                rgblight_increase_val_helper
 .text.rgblight_increase_val
                0x0000000000002f34        0x8 .build/obj_atelier6k_default/quantum/rgblight/rgblight.o
                0x0000000000002f34                rgblight_increase_val
 .text.rgblight_decrease_val_helper
                0x0000000000002f3c       0x1a .build/obj_atelier6k_default/quantum/rgblight/rgblight.o
                0x0000000000002f3c                rgblight_decrease_val_helper
 .text.rgblight_decrease_val
                0x0000000000002f56        0x8 .build/obj_atelier6k_default/quantum/rgblight/rgblight.o
                0x0000000000002f56                rgblight_decrease_val
 .text.rgblight_sethsv_noeeprom
                0x0000000000002f5e        0x8 .build/obj_atelier6k_default/quantum/rgblight/rgblight.o
                0x0000000000002f5e                rgblight_sethsv_noeeprom
 .text.rgblight_effect_rainbow_swirl
                0x0000000000002f66       0x70 .build/obj_atelier6k_default/quantum/rgblight/rgblight.o
                0x0000000000002f66                rgblight_effect_rainbow_swirl
 .text.rgblight_effect_snake
                0x0000000000002fd6       0xe6 .build/obj_atelier6k_default/quantum/rgblight/rgblight.o
                0x0000000000002fd6                rgblight_effect_snake
 .text.rgblight_effect_knight
                0x00000000000030bc       0xda .build/obj_atelier6k_default/quantum/rgblight/rgblight.o
                0x00000000000030bc                rgblight_effect_knight
 .text.rgblight_effect_christmas
                0x0000000000003196      0x100 .build/obj_atelier6k_default/quantum/rgblight/rgblight.o
                0x0000000000003196                rgblight_effect_christmas
 .text.rgblight_effect_alternating
                0x0000000000003296       0x78 .build/obj_atelier6k_default/quantum/rgblight/rgblight.o
                0x0000000000003296                rgblight_effect_alternating
 .text.rgblight_disable
                0x000000000000330e       0x32 .build/obj_atelier6k_default/quantum/rgblight/rgblight.o
                0x000000000000330e                rgblight_disable
 .text.rgblight_disable_noeeprom
                0x0000000000003340       0x26 .build/obj_atelier6k_default/quantum/rgblight/rgblight.o
                0x0000000000003340                rgblight_disable_noeeprom
 .text.rgblight_timer_enable
                0x0000000000003366       0x2c .build/obj_atelier6k_default/quantum/rgblight/rgblight.o
                0x0000000000003366                rgblight_timer_enable
 .text.rgblight_mode_eeprom_helper
                0x0000000000003392       0x74 .build/obj_atelier6k_default/quantum/rgblight/rgblight.o
                0x0000000000003392                rgblight_mode_eeprom_helper
 .text.rgblight_step_helper
                0x0000000000003406       0x18 .build/obj_atelier6k_default/quantum/rgblight/rgblight.o
                0x0000000000003406                rgblight_step_helper
 .text.rgblight_step
                0x000000000000341e        0x8 .build/obj_atelier6k_default/quantum/rgblight/rgblight.o
                0x000000000000341e                rgblight_step
 .text.rgblight_step_reverse_helper
                0x0000000000003426       0x16 .build/obj_atelier6k_default/quantum/rgblight/rgblight.o
                0x0000000000003426                rgblight_step_reverse_helper
 .text.rgblight_step_reverse
                0x000000000000343c        0x8 .build/obj_atelier6k_default/quantum/rgblight/rgblight.o
                0x000000000000343c                rgblight_step_reverse
 .text.rgblight_mode
                0x0000000000003444        0x8 .build/obj_atelier6k_default/quantum/rgblight/rgblight.o
                0x0000000000003444                rgblight_mode
 .text.rgblight_enable
                0x000000000000344c       0x12 .build/obj_atelier6k_default/quantum/rgblight/rgblight.o
                0x000000000000344c                rgblight_enable
 .text.rgblight_toggle
                0x000000000000345e       0x14 .build/obj_atelier6k_default/quantum/rgblight/rgblight.o
                0x000000000000345e                rgblight_toggle
 .text.rgblight_mode_noeeprom
                0x0000000000003472        0x8 .build/obj_atelier6k_default/quantum/rgblight/rgblight.o
                0x0000000000003472                rgblight_mode_noeeprom
 .text.rgblight_init
                0x000000000000347a       0x66 .build/obj_atelier6k_default/quantum/rgblight/rgblight.o
                0x000000000000347a                rgblight_init
 .text.rgblight_enable_noeeprom
                0x00000000000034e0       0x12 .build/obj_atelier6k_default/quantum/rgblight/rgblight.o
                0x00000000000034e0                rgblight_enable_noeeprom
 .text.rgblight_task
                0x00000000000034f2      0x11c .build/obj_atelier6k_default/quantum/rgblight/rgblight.o
                0x00000000000034f2                rgblight_task
 .text.handleKeycodeRGB
                0x000000000000360e        0xc .build/obj_atelier6k_default/quantum/process_keycode/process_rgb.o
 .text.handleKeycodeRGBMode
                0x000000000000361a       0x2a .build/obj_atelier6k_default/quantum/process_keycode/process_rgb.o
 .text.process_rgb
                0x0000000000003644      0x190 .build/obj_atelier6k_default/quantum/process_keycode/process_rgb.o
                0x0000000000003644                process_rgb
 .text.eeconfig_read_backlight
                0x00000000000037d4        0xa .build/obj_atelier6k_default/quantum/backlight/backlight.o
                0x00000000000037d4                eeconfig_read_backlight
 .text.eeconfig_update_backlight
                0x00000000000037de        0xc .build/obj_atelier6k_default/quantum/backlight/backlight.o
                0x00000000000037de                eeconfig_update_backlight
 .text.eeconfig_update_backlight_current
                0x00000000000037ea        0xa .build/obj_atelier6k_default/quantum/backlight/backlight.o
                0x00000000000037ea                eeconfig_update_backlight_current
 .text.eeconfig_update_backlight_default
                0x00000000000037f4       0x12 .build/obj_atelier6k_default/quantum/backlight/backlight.o
                0x00000000000037f4                eeconfig_update_backlight_default
 .text.get_backlight_level
                0x0000000000003806        0xc .build/obj_atelier6k_default/quantum/backlight/backlight.o
                0x0000000000003806                get_backlight_level
 .text.backlight_init
                0x0000000000003812       0x3e .build/obj_atelier6k_default/quantum/backlight/backlight.o
                0x0000000000003812                backlight_init
 .text.backlight_increase
                0x0000000000003850       0x3e .build/obj_atelier6k_default/quantum/backlight/backlight.o
                0x0000000000003850                backlight_increase
 .text.backlight_decrease
                0x000000000000388e       0x38 .build/obj_atelier6k_default/quantum/backlight/backlight.o
                0x000000000000388e                backlight_decrease
 .text.backlight_enable
                0x00000000000038c6       0x30 .build/obj_atelier6k_default/quantum/backlight/backlight.o
                0x00000000000038c6                backlight_enable
 .text.backlight_disable
                0x00000000000038f6       0x1a .build/obj_atelier6k_default/quantum/backlight/backlight.o
                0x00000000000038f6                backlight_disable
 .text.backlight_toggle
                0x0000000000003910       0x14 .build/obj_atelier6k_default/quantum/backlight/backlight.o
                0x0000000000003910                backlight_toggle
 .text.backlight_step
                0x0000000000003924       0x54 .build/obj_atelier6k_default/quantum/backlight/backlight.o
                0x0000000000003924                backlight_step
 .text.backlight_level_noeeprom
                0x0000000000003978       0x34 .build/obj_atelier6k_default/quantum/backlight/backlight.o
                0x0000000000003978                backlight_level_noeeprom
 .text.backlight_level
                0x00000000000039ac        0xe .build/obj_atelier6k_default/quantum/backlight/backlight.o
                0x00000000000039ac                backlight_level
 .text.process_backlight
                0x00000000000039ba       0x60 .build/obj_atelier6k_default/quantum/process_keycode/process_backlight.o
                0x00000000000039ba                process_backlight
 .text.backlight_pins_init
                0x0000000000003a1a        0x6 .build/obj_atelier6k_default/quantum/backlight/backlight_driver_common.o
                0x0000000000003a1a                backlight_pins_init
 .text.backlight_pins_on
                0x0000000000003a20        0x4 .build/obj_atelier6k_default/quantum/backlight/backlight_driver_common.o
                0x0000000000003a20                backlight_pins_on
 .text.backlight_pins_off
                0x0000000000003a24        0x4 .build/obj_atelier6k_default/quantum/backlight/backlight_driver_common.o
                0x0000000000003a24                backlight_pins_off
 .text.__vector_17
                0x0000000000003a28       0x48 .build/obj_atelier6k_default/quantum/backlight/backlight_avr.o
                0x0000000000003a28                __vector_17
 .text.__vector_20
                0x0000000000003a70       0x6a .build/obj_atelier6k_default/quantum/backlight/backlight_avr.o
                0x0000000000003a70                __vector_20
 .text.backlight_set
                0x0000000000003ada      0x168 .build/obj_atelier6k_default/quantum/backlight/backlight_avr.o
                0x0000000000003ada                backlight_set
 .text.backlight_task
                0x0000000000003c42        0x2 .build/obj_atelier6k_default/quantum/backlight/backlight_avr.o
                0x0000000000003c42                backlight_task
 .text.backlight_init_ports
                0x0000000000003c44       0x22 .build/obj_atelier6k_default/quantum/backlight/backlight_avr.o
                0x0000000000003c44                backlight_init_ports
 .text.ws2812_setleds
                0x0000000000003c66       0x56 .build/obj_atelier6k_default/ws2812.o
                0x0000000000003c66                ws2812_setleds
 .text.via_eeprom_is_valid
                0x0000000000003cbc       0x32 .build/obj_atelier6k_default/quantum/via.o
                0x0000000000003cbc                via_eeprom_is_valid
 .text.via_eeprom_set_valid
                0x0000000000003cee       0x32 .build/obj_atelier6k_default/quantum/via.o
                0x0000000000003cee                via_eeprom_set_valid
 .text.via_init_kb
                0x0000000000003d20        0x2 .build/obj_atelier6k_default/quantum/via.o
                0x0000000000003d20                via_init_kb
 .text.via_get_layout_options
                0x0000000000003d22       0x12 .build/obj_atelier6k_default/quantum/via.o
                0x0000000000003d22                via_get_layout_options
 .text.via_set_layout_options_kb
                0x0000000000003d34        0x2 .build/obj_atelier6k_default/quantum/via.o
                0x0000000000003d34                via_set_layout_options_kb
 .text.via_set_layout_options
                0x0000000000003d36       0x16 .build/obj_atelier6k_default/quantum/via.o
                0x0000000000003d36                via_set_layout_options
 .text.eeconfig_init_via
                0x0000000000003d4c       0x20 .build/obj_atelier6k_default/quantum/via.o
                0x0000000000003d4c                eeconfig_init_via
 .text.via_init
                0x0000000000003d6c       0x1a .build/obj_atelier6k_default/quantum/via.o
                0x0000000000003d6c                via_init
 .text.process_record_via
                0x0000000000003d86       0x70 .build/obj_atelier6k_default/quantum/via.o
                0x0000000000003d86                process_record_via
 .text.raw_hid_receive_kb
                0x0000000000003df6        0x8 .build/obj_atelier6k_default/quantum/via.o
                0x0000000000003df6                raw_hid_receive_kb
 .text.via_qmk_backlight_get_value
                0x0000000000003dfe       0x34 .build/obj_atelier6k_default/quantum/via.o
                0x0000000000003dfe                via_qmk_backlight_get_value
 .text.via_qmk_backlight_set_value
                0x0000000000003e32       0x22 .build/obj_atelier6k_default/quantum/via.o
                0x0000000000003e32                via_qmk_backlight_set_value
 .text.via_qmk_rgblight_get_value
                0x0000000000003e54       0x42 .build/obj_atelier6k_default/quantum/via.o
                0x0000000000003e54                via_qmk_rgblight_get_value
 .text.via_qmk_rgblight_set_value
                0x0000000000003e96       0x62 .build/obj_atelier6k_default/quantum/via.o
                0x0000000000003e96                via_qmk_rgblight_set_value
 .text.raw_hid_receive
                0x0000000000003ef8      0x18a .build/obj_atelier6k_default/quantum/via.o
                0x0000000000003ef8                raw_hid_receive
 .text.process_magic
                0x0000000000004082      0x27a .build/obj_atelier6k_default/quantum/process_keycode/process_magic.o
                0x0000000000004082                process_magic
 .text.dynamic_keymap_get_layer_count
                0x00000000000042fc        0x4 .build/obj_atelier6k_default/quantum/dynamic_keymap.o
                0x00000000000042fc                dynamic_keymap_get_layer_count
 .text.dynamic_keymap_key_to_eeprom_address
                0x0000000000004300       0x20 .build/obj_atelier6k_default/quantum/dynamic_keymap.o
                0x0000000000004300                dynamic_keymap_key_to_eeprom_address
 .text.dynamic_keymap_get_keycode
                0x0000000000004320       0x44 .build/obj_atelier6k_default/quantum/dynamic_keymap.o
                0x0000000000004320                dynamic_keymap_get_keycode
 .text.dynamic_keymap_set_keycode
                0x0000000000004364       0x38 .build/obj_atelier6k_default/quantum/dynamic_keymap.o
                0x0000000000004364                dynamic_keymap_set_keycode
 .text.dynamic_keymap_reset
                0x000000000000439c       0x70 .build/obj_atelier6k_default/quantum/dynamic_keymap.o
                0x000000000000439c                dynamic_keymap_reset
 .text.dynamic_keymap_get_buffer
                0x000000000000440c       0x46 .build/obj_atelier6k_default/quantum/dynamic_keymap.o
                0x000000000000440c                dynamic_keymap_get_buffer
 .text.dynamic_keymap_set_buffer
                0x0000000000004452       0x46 .build/obj_atelier6k_default/quantum/dynamic_keymap.o
                0x0000000000004452                dynamic_keymap_set_buffer
 .text.keymap_key_to_keycode
                0x0000000000004498       0x1c .build/obj_atelier6k_default/quantum/dynamic_keymap.o
                0x0000000000004498                keymap_key_to_keycode
 .text.dynamic_keymap_macro_get_count
                0x00000000000044b4        0x4 .build/obj_atelier6k_default/quantum/dynamic_keymap.o
                0x00000000000044b4                dynamic_keymap_macro_get_count
 .text.dynamic_keymap_macro_get_buffer_size
                0x00000000000044b8        0x6 .build/obj_atelier6k_default/quantum/dynamic_keymap.o
                0x00000000000044b8                dynamic_keymap_macro_get_buffer_size
 .text.dynamic_keymap_macro_get_buffer
                0x00000000000044be       0x4a .build/obj_atelier6k_default/quantum/dynamic_keymap.o
                0x00000000000044be                dynamic_keymap_macro_get_buffer
 .text.dynamic_keymap_macro_set_buffer
                0x0000000000004508       0x4a .build/obj_atelier6k_default/quantum/dynamic_keymap.o
                0x0000000000004508                dynamic_keymap_macro_set_buffer
 .text.dynamic_keymap_macro_reset
                0x0000000000004552       0x20 .build/obj_atelier6k_default/quantum/dynamic_keymap.o
                0x0000000000004552                dynamic_keymap_macro_reset
 .text.dynamic_keymap_macro_send
                0x0000000000004572       0x94 .build/obj_atelier6k_default/quantum/dynamic_keymap.o
                0x0000000000004572                dynamic_keymap_macro_send
 .text.process_grave_esc
                0x0000000000004606       0x54 .build/obj_atelier6k_default/quantum/process_keycode/process_grave_esc.o
                0x0000000000004606                process_grave_esc
 .text.perform_space_cadet
                0x000000000000465a       0xc8 .build/obj_atelier6k_default/quantum/process_keycode/process_space_cadet.o
                0x000000000000465a                perform_space_cadet
 .text.process_space_cadet
                0x0000000000004722       0xa4 .build/obj_atelier6k_default/quantum/process_keycode/process_space_cadet.o
                0x0000000000004722                process_space_cadet
 .text.print_set_sendchar
                0x00000000000047c6        0xa .build/obj_atelier6k_default/platforms/avr/printf.o
                0x00000000000047c6                print_set_sendchar
 .text.host_set_driver
                0x00000000000047d0        0xa .build/obj_atelier6k_default/protocol/host.o
                0x00000000000047d0                host_set_driver
 .text.host_keyboard_leds
                0x00000000000047da       0x1a .build/obj_atelier6k_default/protocol/host.o
                0x00000000000047da                host_keyboard_leds
 .text.host_keyboard_send
                0x00000000000047f4       0x34 .build/obj_atelier6k_default/protocol/host.o
                0x00000000000047f4                host_keyboard_send
 .text.host_mouse_send
                0x0000000000004828       0x1c .build/obj_atelier6k_default/protocol/host.o
                0x0000000000004828                host_mouse_send
 .text.host_system_send
                0x0000000000004844       0x2c .build/obj_atelier6k_default/protocol/host.o
                0x0000000000004844                host_system_send
 .text.host_consumer_send
                0x0000000000004870       0x2c .build/obj_atelier6k_default/protocol/host.o
                0x0000000000004870                host_consumer_send
 .text.has_anykey
                0x000000000000489c       0x28 .build/obj_atelier6k_default/protocol/report.o
                0x000000000000489c                has_anykey
 .text.is_key_pressed
                0x00000000000048c4       0x60 .build/obj_atelier6k_default/protocol/report.o
                0x00000000000048c4                is_key_pressed
 .text.add_key_byte
                0x0000000000004924       0x34 .build/obj_atelier6k_default/protocol/report.o
                0x0000000000004924                add_key_byte
 .text.del_key_byte
                0x0000000000004958       0x1a .build/obj_atelier6k_default/protocol/report.o
                0x0000000000004958                del_key_byte
 .text.add_key_bit
                0x0000000000004972       0x28 .build/obj_atelier6k_default/protocol/report.o
                0x0000000000004972                add_key_bit
 .text.del_key_bit
                0x000000000000499a       0x2a .build/obj_atelier6k_default/protocol/report.o
                0x000000000000499a                del_key_bit
 .text.add_key_to_report
                0x00000000000049c4       0x1c .build/obj_atelier6k_default/protocol/report.o
                0x00000000000049c4                add_key_to_report
 .text.del_key_from_report
                0x00000000000049e0       0x1c .build/obj_atelier6k_default/protocol/report.o
                0x00000000000049e0                del_key_from_report
 .text.clear_keys_from_report
                0x00000000000049fc       0x24 .build/obj_atelier6k_default/protocol/report.o
                0x00000000000049fc                clear_keys_from_report
 .text.has_mouse_report_changed
                0x0000000000004a20       0x14 .build/obj_atelier6k_default/protocol/report.o
                0x0000000000004a20                has_mouse_report_changed
 .text.notify_usb_device_state_change_user
                0x0000000000004a34        0x2 .build/obj_atelier6k_default/protocol/usb_device_state.o
                0x0000000000004a34                notify_usb_device_state_change_user
 .text.notify_usb_device_state_change_kb
                0x0000000000004a36        0x6 .build/obj_atelier6k_default/protocol/usb_device_state.o
                0x0000000000004a36                notify_usb_device_state_change_kb
 .text.usb_device_state_set_configuration
                0x0000000000004a3c       0x14 .build/obj_atelier6k_default/protocol/usb_device_state.o
                0x0000000000004a3c                usb_device_state_set_configuration
 .text.usb_device_state_set_suspend
                0x0000000000004a50        0xc .build/obj_atelier6k_default/protocol/usb_device_state.o
                0x0000000000004a50                usb_device_state_set_suspend
 .text.usb_device_state_set_resume
                0x0000000000004a5c        0x6 .build/obj_atelier6k_default/protocol/usb_device_state.o
                0x0000000000004a5c                usb_device_state_set_resume
 .text.usb_device_state_set_reset
                0x0000000000004a62        0xc .build/obj_atelier6k_default/protocol/usb_device_state.o
                0x0000000000004a62                usb_device_state_set_reset
 .text.usb_device_state_init
                0x0000000000004a6e        0x6 .build/obj_atelier6k_default/protocol/usb_device_state.o
                0x0000000000004a6e                usb_device_state_init
 .text.suspend_wakeup_init_user
                0x0000000000004a74        0x2 .build/obj_atelier6k_default/platforms/suspend.o
                0x0000000000004a74                suspend_wakeup_init_user
 .text.suspend_power_down_user
                0x0000000000004a76        0x2 .build/obj_atelier6k_default/platforms/suspend.o
                0x0000000000004a76                suspend_power_down_user
 .text.suspend_power_down_kb
                0x0000000000004a78        0x6 .build/obj_atelier6k_default/platforms/suspend.o
                0x0000000000004a78                suspend_power_down_kb
 .text.matrix_power_up
                0x0000000000004a7e        0x2 .build/obj_atelier6k_default/platforms/suspend.o
                0x0000000000004a7e                matrix_power_up
 .text.matrix_power_down
                0x0000000000004a80        0x2 .build/obj_atelier6k_default/platforms/suspend.o
                0x0000000000004a80                matrix_power_down
 .text.suspend_wakeup_init_kb
                0x0000000000004a82        0x6 .build/obj_atelier6k_default/platforms/suspend.o
                0x0000000000004a82                suspend_wakeup_init_kb
 .text.suspend_wakeup_condition
                0x0000000000004a88       0x28 .build/obj_atelier6k_default/platforms/suspend.o
                0x0000000000004a88                suspend_wakeup_condition
 .text.platform_setup
                0x0000000000004ab0        0xe .build/obj_atelier6k_default/platforms/avr/platform.o
                0x0000000000004ab0                platform_setup
 .text.__vector_12
                0x0000000000004abe       0x4e .build/obj_atelier6k_default/platforms/avr/suspend.o
                0x0000000000004abe                __vector_12
 .text.suspend_power_down
                0x0000000000004b0c       0x56 .build/obj_atelier6k_default/platforms/avr/suspend.o
                0x0000000000004b0c                suspend_power_down
 .text.suspend_wakeup_init
                0x0000000000004b62        0xa .build/obj_atelier6k_default/platforms/avr/suspend.o
                0x0000000000004b62                suspend_wakeup_init
 .text.timer_init
                0x0000000000004b6c       0x12 .build/obj_atelier6k_default/platforms/avr/timer.o
                0x0000000000004b6c                timer_init
 .text.timer_read
                0x0000000000004b7e       0x18 .build/obj_atelier6k_default/platforms/avr/timer.o
                0x0000000000004b7e                timer_read
 .text.timer_read32
                0x0000000000004b96       0x18 .build/obj_atelier6k_default/platforms/avr/timer.o
                0x0000000000004b96                timer_read32
 .text.timer_elapsed
                0x0000000000004bae       0x1e .build/obj_atelier6k_default/platforms/avr/timer.o
                0x0000000000004bae                timer_elapsed
 .text.__vector_21
                0x0000000000004bcc       0x48 .build/obj_atelier6k_default/platforms/avr/timer.o
                0x0000000000004bcc                __vector_21
 .text.bootloader_jump
                0x0000000000004c14       0x48 .build/obj_atelier6k_default/platforms/avr/bootloaders/dfu.o
                0x0000000000004c14                bootloader_jump
 .text.mcu_reset
                0x0000000000004c5c       0x16 .build/obj_atelier6k_default/platforms/avr/bootloaders/dfu.o
                0x0000000000004c5c                mcu_reset
 .text.keyboard_leds
                0x0000000000004c72        0x6 .build/obj_atelier6k_default/lufa.o
 .text.send_system
                0x0000000000004c78        0x2 .build/obj_atelier6k_default/lufa.o
 .text.send_programmable_button
                0x0000000000004c7a        0x2 .build/obj_atelier6k_default/lufa.o
 .text.send_mouse
                0x0000000000004c7c       0x42 .build/obj_atelier6k_default/lufa.o
 .text.send_keyboard
                0x0000000000004cbe       0x80 .build/obj_atelier6k_default/lufa.o
 .text.send_consumer
                0x0000000000004d3e        0x2 .build/obj_atelier6k_default/lufa.o
 .text.raw_hid_send
                0x0000000000004d40       0x54 .build/obj_atelier6k_default/lufa.o
                0x0000000000004d40                raw_hid_send
 .text.EVENT_USB_Device_Connect
                0x0000000000004d94       0x1c .build/obj_atelier6k_default/lufa.o
                0x0000000000004d94                EVENT_USB_Device_Connect
 .text.EVENT_USB_Device_Disconnect
                0x0000000000004db0        0x6 .build/obj_atelier6k_default/lufa.o
                0x0000000000004db0                EVENT_USB_Device_Disconnect
 .text.EVENT_USB_Device_Reset
                0x0000000000004db6        0x6 .build/obj_atelier6k_default/lufa.o
                0x0000000000004db6                EVENT_USB_Device_Reset
 .text.EVENT_USB_Device_Suspend
                0x0000000000004dbc       0x12 .build/obj_atelier6k_default/lufa.o
                0x0000000000004dbc                EVENT_USB_Device_Suspend
 .text.EVENT_USB_Device_WakeUp
                0x0000000000004dce       0x16 .build/obj_atelier6k_default/lufa.o
                0x0000000000004dce                EVENT_USB_Device_WakeUp
 .text.EVENT_USB_Device_ConfigurationChanged
                0x0000000000004de4       0x3e .build/obj_atelier6k_default/lufa.o
                0x0000000000004de4                EVENT_USB_Device_ConfigurationChanged
 .text.EVENT_USB_Device_ControlRequest
                0x0000000000004e22      0x178 .build/obj_atelier6k_default/lufa.o
                0x0000000000004e22                EVENT_USB_Device_ControlRequest
 .text.protocol_setup
                0x0000000000004f9a       0x34 .build/obj_atelier6k_default/lufa.o
                0x0000000000004f9a                protocol_setup
 .text.protocol_pre_init
                0x0000000000004fce       0x1a .build/obj_atelier6k_default/lufa.o
                0x0000000000004fce                protocol_pre_init
 .text.protocol_post_init
                0x0000000000004fe8        0xa .build/obj_atelier6k_default/lufa.o
                0x0000000000004fe8                protocol_post_init
 .text.protocol_pre_task
                0x0000000000004ff2       0x34 .build/obj_atelier6k_default/lufa.o
                0x0000000000004ff2                protocol_pre_task
 .text.protocol_post_task
                0x0000000000005026       0x5e .build/obj_atelier6k_default/lufa.o
                0x0000000000005026                protocol_post_task
 .text.CALLBACK_USB_GetDescriptor
                0x0000000000005084        0x6 .build/obj_atelier6k_default/lufa.o
                0x0000000000005084                CALLBACK_USB_GetDescriptor
 .text.get_usb_descriptor
                0x000000000000508a       0xae .build/obj_atelier6k_default/usb_descriptor.o
                0x000000000000508a                get_usb_descriptor
 .text.USB_Device_SendRemoteWakeup
                0x0000000000005138       0x2c .build/obj_atelier6k_default/lib/lufa/LUFA/Drivers/USB/Core/AVR8/Device_AVR8.o
                0x0000000000005138                USB_Device_SendRemoteWakeup
 .text.Endpoint_Write_Stream_LE
                0x0000000000005164       0x9e .build/obj_atelier6k_default/lib/lufa/LUFA/Drivers/USB/Core/AVR8/EndpointStream_AVR8.o
                0x0000000000005164                Endpoint_Write_Stream_LE
 .text.Endpoint_Read_Stream_LE
                0x0000000000005202       0x9e .build/obj_atelier6k_default/lib/lufa/LUFA/Drivers/USB/Core/AVR8/EndpointStream_AVR8.o
                0x0000000000005202                Endpoint_Read_Stream_LE
 .text.Endpoint_Write_Control_Stream_LE
                0x00000000000052a0       0xbc .build/obj_atelier6k_default/lib/lufa/LUFA/Drivers/USB/Core/AVR8/EndpointStream_AVR8.o
                0x00000000000052a0                Endpoint_Write_Control_Stream_LE
 .text.Endpoint_Write_Control_PStream_LE
                0x000000000000535c       0xbe .build/obj_atelier6k_default/lib/lufa/LUFA/Drivers/USB/Core/AVR8/EndpointStream_AVR8.o
                0x000000000000535c                Endpoint_Write_Control_PStream_LE
 .text.Endpoint_ConfigureEndpoint_Prv
                0x000000000000541a       0x68 .build/obj_atelier6k_default/lib/lufa/LUFA/Drivers/USB/Core/AVR8/Endpoint_AVR8.o
                0x000000000000541a                Endpoint_ConfigureEndpoint_Prv
 .text.Endpoint_ClearStatusStage
                0x0000000000005482       0x3e .build/obj_atelier6k_default/lib/lufa/LUFA/Drivers/USB/Core/AVR8/Endpoint_AVR8.o
                0x0000000000005482                Endpoint_ClearStatusStage
 .text.Endpoint_WaitUntilReady
                0x00000000000054c0       0x62 .build/obj_atelier6k_default/lib/lufa/LUFA/Drivers/USB/Core/AVR8/Endpoint_AVR8.o
                0x00000000000054c0                Endpoint_WaitUntilReady
 .text.USB_Disable
                0x0000000000005522       0x34 .build/obj_atelier6k_default/lib/lufa/LUFA/Drivers/USB/Core/AVR8/USBController_AVR8.o
                0x0000000000005522                USB_Disable
 .text.USB_ResetInterface
                0x0000000000005556       0x86 .build/obj_atelier6k_default/lib/lufa/LUFA/Drivers/USB/Core/AVR8/USBController_AVR8.o
                0x0000000000005556                USB_ResetInterface
 .text.USB_Init
                0x00000000000055dc       0x24 .build/obj_atelier6k_default/lib/lufa/LUFA/Drivers/USB/Core/AVR8/USBController_AVR8.o
                0x00000000000055dc                USB_Init
 .text.USB_INT_DisableAllInterrupts
                0x0000000000005600       0x10 .build/obj_atelier6k_default/lib/lufa/LUFA/Drivers/USB/Core/AVR8/USBInterrupt_AVR8.o
                0x0000000000005600                USB_INT_DisableAllInterrupts
 .text.USB_INT_ClearAllInterrupts
                0x0000000000005610        0xa .build/obj_atelier6k_default/lib/lufa/LUFA/Drivers/USB/Core/AVR8/USBInterrupt_AVR8.o
                0x0000000000005610                USB_INT_ClearAllInterrupts
 .text.__vector_10
                0x000000000000561a      0x1a8 .build/obj_atelier6k_default/lib/lufa/LUFA/Drivers/USB/Core/AVR8/USBInterrupt_AVR8.o
                0x000000000000561a                __vector_10
 .text.__vector_11
                0x00000000000057c2       0x88 .build/obj_atelier6k_default/lib/lufa/LUFA/Drivers/USB/Core/AVR8/USBInterrupt_AVR8.o
                0x00000000000057c2                __vector_11
 .text.USB_Device_ProcessControlRequest
                0x000000000000584a      0x28e .build/obj_atelier6k_default/lib/lufa/LUFA/Drivers/USB/Core/DeviceStandardReq.o
                0x000000000000584a                USB_Device_ProcessControlRequest
 .text.USB_Event_Stub
                0x0000000000005ad8        0x2 .build/obj_atelier6k_default/lib/lufa/LUFA/Drivers/USB/Core/Events.o
                0x0000000000005ad8                EVENT_USB_Device_StartOfFrame
                0x0000000000005ad8                USB_Event_Stub
 .text.USB_USBTask
                0x0000000000005ada       0x36 .build/obj_atelier6k_default/lib/lufa/LUFA/Drivers/USB/Core/USBTask.o
                0x0000000000005ada                USB_USBTask
 .text.libgcc.mul
                0x0000000000005b10       0x20 e:/qmk_msys/mingw64/bin/../lib/gcc/avr/8.4.0/avr5\libgcc.a(_mulsi3.o)
                0x0000000000005b10                __mulsi3
 .text.libgcc.div
                0x0000000000005b30       0x1c e:/qmk_msys/mingw64/bin/../lib/gcc/avr/8.4.0/avr5\libgcc.a(_divmodqi4.o)
                0x0000000000005b30                __divmodqi4
 .text.libgcc.div
                0x0000000000005b4c       0x28 e:/qmk_msys/mingw64/bin/../lib/gcc/avr/8.4.0/avr5\libgcc.a(_udivmodhi4.o)
                0x0000000000005b4c                __udivmodhi4
 .text.libgcc.div
                0x0000000000005b74       0x28 e:/qmk_msys/mingw64/bin/../lib/gcc/avr/8.4.0/avr5\libgcc.a(_divmodhi4.o)
                0x0000000000005b74                _div
                0x0000000000005b74                __divmodhi4
 .text.libgcc.div
                0x0000000000005b9c       0x44 e:/qmk_msys/mingw64/bin/../lib/gcc/avr/8.4.0/avr5\libgcc.a(_udivmodsi4.o)
                0x0000000000005b9c                __udivmodsi4
 .text.libgcc   0x0000000000005be0        0xc e:/qmk_msys/mingw64/bin/../lib/gcc/avr/8.4.0/avr5\libgcc.a(_tablejump2.o)
                0x0000000000005be0                __tablejump2__
 .text.libgcc.builtins
                0x0000000000005bec        0xe e:/qmk_msys/mingw64/bin/../lib/gcc/avr/8.4.0/avr5\libgcc.a(_bswapsi2.o)
                0x0000000000005bec                __bswapsi2
 .text.libgcc.mul
                0x0000000000005bfa       0x10 e:/qmk_msys/mingw64/bin/../lib/gcc/avr/8.4.0/avr5\libgcc.a(_mulhisi3.o)
                0x0000000000005bfa                __mulhisi3
 .text.libgcc.mul
                0x0000000000005c0a       0x1e e:/qmk_msys/mingw64/bin/../lib/gcc/avr/8.4.0/avr5\libgcc.a(_umulhisi3.o)
                0x0000000000005c0a                __umulhisi3
 .text.libgcc.mul
                0x0000000000005c28        0xe e:/qmk_msys/mingw64/bin/../lib/gcc/avr/8.4.0/avr5\libgcc.a(_usmulhisi3.o)
                0x0000000000005c28                __usmulhisi3
                0x0000000000005c2c                __usmulhisi3_tail
 .text.libgcc.mul
                0x0000000000005c36       0x16 e:/qmk_msys/mingw64/bin/../lib/gcc/avr/8.4.0/avr5\libgcc.a(_muluhisi3.o)
                0x0000000000005c36                __muluhisi3
 .text.libgcc.mul
                0x0000000000005c4c       0x10 e:/qmk_msys/mingw64/bin/../lib/gcc/avr/8.4.0/avr5\libgcc.a(_mulshisi3.o)
                0x0000000000005c4c                __mulshisi3
                0x0000000000005c52                __mulohisi3
 .text.libgcc.prologue
                0x0000000000005c5c       0x38 e:/qmk_msys/mingw64/bin/../lib/gcc/avr/8.4.0/avr5\libgcc.a(_prologue.o)
                0x0000000000005c5c                __prologue_saves__
 .text.libgcc.prologue
                0x0000000000005c94       0x36 e:/qmk_msys/mingw64/bin/../lib/gcc/avr/8.4.0/avr5\libgcc.a(_epilogue.o)
                0x0000000000005c94                __epilogue_restores__
 .text.libgcc.div
                0x0000000000005cca       0x18 e:/qmk_msys/mingw64/bin/../lib/gcc/avr/8.4.0/avr5\libgcc.a(_udivmodqi4.o)
                0x0000000000005cca                __udivmodqi4
 .text.avr-libc
                0x0000000000005ce2       0x1a e:/qmk_msys/mingw64/bin/../lib/gcc/avr/8.4.0/../../../../avr/lib/avr5\libc.a(memchr.o)
                0x0000000000005ce2                memchr
 .text.avr-libc
                0x0000000000005cfc       0x1a e:/qmk_msys/mingw64/bin/../lib/gcc/avr/8.4.0/../../../../avr/lib/avr5\libc.a(memcmp.o)
                0x0000000000005cfc                memcmp
 .text.avr-libc
                0x0000000000005d16       0x10 e:/qmk_msys/mingw64/bin/../lib/gcc/avr/8.4.0/../../../../avr/lib/avr5\libatmega32u4.a(eerd_byte.o)
                0x0000000000005d16                eeprom_read_byte
 .text.avr-libc
                0x0000000000005d26        0xc e:/qmk_msys/mingw64/bin/../lib/gcc/avr/8.4.0/../../../../avr/lib/avr5\libatmega32u4.a(eerd_dword.o)
                0x0000000000005d26                eeprom_read_float
                0x0000000000005d26                eeprom_read_dword
 .text.avr-libc
                0x0000000000005d32        0xc e:/qmk_msys/mingw64/bin/../lib/gcc/avr/8.4.0/../../../../avr/lib/avr5\libatmega32u4.a(eerd_word.o)
                0x0000000000005d32                eeprom_read_word
 .text.avr-libc
                0x0000000000005d3e       0x24 e:/qmk_msys/mingw64/bin/../lib/gcc/avr/8.4.0/../../../../avr/lib/avr5\libatmega32u4.a(eeupd_byte.o)
                0x0000000000005d3e                eeprom_update_byte
                0x0000000000005d40                eeprom_update_r18
 .text.avr-libc
                0x0000000000005d62       0x18 e:/qmk_msys/mingw64/bin/../lib/gcc/avr/8.4.0/../../../../avr/lib/avr5\libatmega32u4.a(eeupd_dword.o)
                0x0000000000005d62                eeprom_update_float
                0x0000000000005d62                eeprom_update_dword
 .text.avr-libc
                0x0000000000005d7a        0xc e:/qmk_msys/mingw64/bin/../lib/gcc/avr/8.4.0/../../../../avr/lib/avr5\libatmega32u4.a(eeupd_word.o)
                0x0000000000005d7a                eeprom_update_word
 .text.avr-libc
                0x0000000000005d86       0x20 e:/qmk_msys/mingw64/bin/../lib/gcc/avr/8.4.0/../../../../avr/lib/avr5\libatmega32u4.a(eerd_block.o)
                0x0000000000005d86                eeprom_read_block
                0x0000000000005d8a                eeprom_read_blraw
                0x0000000000005da6                . = ALIGN (0x2)
 *(.fini9)
 .fini9         0x0000000000005da6        0x0 e:/qmk_msys/mingw64/bin/../lib/gcc/avr/8.4.0/avr5\libgcc.a(_exit.o)
                0x0000000000005da6                _exit
                0x0000000000005da6                exit
 *(.fini9)
 *(.fini8)
 *(.fini8)
 *(.fini7)
 *(.fini7)
 *(.fini6)
 *(.fini6)
 *(.fini5)
 *(.fini5)
 *(.fini4)
 *(.fini4)
 *(.fini3)
 *(.fini3)
 *(.fini2)
 *(.fini2)
 *(.fini1)
 *(.fini1)
 *(.fini0)
 .fini0         0x0000000000005da6        0x4 e:/qmk_msys/mingw64/bin/../lib/gcc/avr/8.4.0/avr5\libgcc.a(_exit.o)
 *(.fini0)
 *(.hightext)
 *(.hightext*)
 *(.progmemx.*)
                0x0000000000005daa                . = ALIGN (0x2)
 *(.jumptables)
 *(.jumptables*)
 .jumptables.gcc.process_action
                0x0000000000005daa       0x18 .build/obj_atelier6k_default/quantum/action.o
 .jumptables.gcc.raw_hid_receive
                0x0000000000005dc2       0x26 .build/obj_atelier6k_default/quantum/via.o
 .jumptables.gcc.USB_Device_ProcessControlRequest
                0x0000000000005de8       0x14 .build/obj_atelier6k_default/lib/lufa/LUFA/Drivers/USB/Core/DeviceStandardReq.o
                0x0000000000005dfc                _etext = .

.data           0x0000000000800100       0x64 load address 0x0000000000005dfc
                0x0000000000800100                PROVIDE (__data_start = .)
 *(.data)
 *(.data*)
 .data.keyboard_report
                0x0000000000800100        0x2 .build/obj_atelier6k_default/quantum/action_util.o
                0x0000000000800100                keyboard_report
 .data.mk_wheel_time_to_max
                0x0000000000800102        0x1 .build/obj_atelier6k_default/quantum/mousekey.o
                0x0000000000800102                mk_wheel_time_to_max
 .data.mk_wheel_max_speed
                0x0000000000800103        0x1 .build/obj_atelier6k_default/quantum/mousekey.o
                0x0000000000800103                mk_wheel_max_speed
 .data.mk_wheel_interval
                0x0000000000800104        0x1 .build/obj_atelier6k_default/quantum/mousekey.o
                0x0000000000800104                mk_wheel_interval
 .data.mk_wheel_delay
                0x0000000000800105        0x1 .build/obj_atelier6k_default/quantum/mousekey.o
                0x0000000000800105                mk_wheel_delay
 .data.mk_time_to_max
                0x0000000000800106        0x1 .build/obj_atelier6k_default/quantum/mousekey.o
                0x0000000000800106                mk_time_to_max
 .data.mk_max_speed
                0x0000000000800107        0x1 .build/obj_atelier6k_default/quantum/mousekey.o
                0x0000000000800107                mk_max_speed
 .data.mk_interval
                0x0000000000800108        0x1 .build/obj_atelier6k_default/quantum/mousekey.o
                0x0000000000800108                mk_interval
 .data.mk_delay
                0x0000000000800109        0x1 .build/obj_atelier6k_default/quantum/mousekey.o
                0x0000000000800109                mk_delay
 .data.increment.3473
                0x000000000080010a        0x1 .build/obj_atelier6k_default/quantum/rgblight/rgblight.o
 .data.increment.3461
                0x000000000080010b        0x1 .build/obj_atelier6k_default/quantum/rgblight/rgblight.o
 .data.high_bound.3460
                0x000000000080010c        0x1 .build/obj_atelier6k_default/quantum/rgblight/rgblight.o
 .data.rgblight_ranges
                0x000000000080010d        0x5 .build/obj_atelier6k_default/quantum/rgblight/rgblight.o
                0x000000000080010d                rgblight_ranges
 .data.static_effect_table
                0x0000000000800112        0xb .build/obj_atelier6k_default/quantum/rgblight/rgblight.o
 .data.lufa_driver
                0x000000000080011d        0xc .build/obj_atelier6k_default/lufa.o
                0x000000000080011d                lufa_driver
 .data.keyboard_protocol
                0x0000000000800129        0x1 .build/obj_atelier6k_default/lufa.o
                0x0000000000800129                keyboard_protocol
 *(.gnu.linkonce.d*)
 *(.rodata)
 *(.rodata*)
 .rodata.col_pins
                0x000000000080012a        0x3 .build/obj_atelier6k_default/quantum/matrix.o
 .rodata.row_pins
                0x000000000080012d        0x3 .build/obj_atelier6k_default/quantum/matrix.o
 .rodata.mode_base_table
                0x0000000000800130       0x25 .build/obj_atelier6k_default/quantum/rgblight/rgblight.o
 .rodata.CSWTCH.2
                0x0000000000800155        0x3 .build/obj_atelier6k_default/usb_descriptor.o
 .rodata.CSWTCH.1
                0x0000000000800158        0x6 .build/obj_atelier6k_default/usb_descriptor.o
 .rodata.CSWTCH.0
                0x000000000080015e        0x6 .build/obj_atelier6k_default/usb_descriptor.o
 *(.gnu.linkonce.r*)
                0x0000000000800164                . = ALIGN (0x2)
                0x0000000000800164                _edata = .
                0x0000000000800164                PROVIDE (__data_end = .)

.bss            0x0000000000800164      0x115
                0x0000000000800164                PROVIDE (__bss_start = .)
 *(.bss)
 .bss           0x0000000000800164        0x2 .build/obj_atelier6k_default/platforms/avr/xprintf.o
                0x0000000000800164                xfunc_out
 *(.bss*)
 .bss.last_led_status.4888
                0x0000000000800166        0x1 .build/obj_atelier6k_default/quantum/led.o
 .bss.disable_action_cache
                0x0000000000800167        0x1 .build/obj_atelier6k_default/quantum/action.o
                0x0000000000800167                disable_action_cache
 .bss.source_layers_cache
                0x0000000000800168        0x6 .build/obj_atelier6k_default/quantum/action_layer.o
                0x0000000000800168                source_layers_cache
 .bss.layer_state
                0x000000000080016e        0x1 .build/obj_atelier6k_default/quantum/action_layer.o
                0x000000000080016e                layer_state
 .bss.default_layer_state
                0x000000000080016f        0x1 .build/obj_atelier6k_default/quantum/action_layer.o
                0x000000000080016f                default_layer_state
 .bss.waiting_buffer_tail
                0x0000000000800170        0x1 .build/obj_atelier6k_default/quantum/action_tapping.o
 .bss.waiting_buffer_head
                0x0000000000800171        0x1 .build/obj_atelier6k_default/quantum/action_tapping.o
 .bss.waiting_buffer
                0x0000000000800172       0x30 .build/obj_atelier6k_default/quantum/action_tapping.o
 .bss.tapping_key
                0x00000000008001a2        0x6 .build/obj_atelier6k_default/quantum/action_tapping.o
 .bss.last_report.5395
                0x00000000008001a8       0x20 .build/obj_atelier6k_default/quantum/action_util.o
 .bss.oneshot_layer_data
                0x00000000008001c8        0x1 .build/obj_atelier6k_default/quantum/action_util.o
 .bss.oneshot_mods
                0x00000000008001c9        0x1 .build/obj_atelier6k_default/quantum/action_util.o
 .bss.__compound_literal.0
                0x00000000008001ca       0x20 .build/obj_atelier6k_default/quantum/action_util.o
 .bss.weak_mods
                0x00000000008001ea        0x1 .build/obj_atelier6k_default/quantum/action_util.o
 .bss.real_mods
                0x00000000008001eb        0x1 .build/obj_atelier6k_default/quantum/action_util.o
 .bss.matrix_prev.6884
                0x00000000008001ec        0x3 .build/obj_atelier6k_default/quantum/keyboard.o
 .bss.last_matrix_modification_time
                0x00000000008001ef        0x4 .build/obj_atelier6k_default/quantum/keyboard.o
 .bss.last_input_modification_time
                0x00000000008001f3        0x4 .build/obj_atelier6k_default/quantum/keyboard.o
 .bss.debug_config
                0x00000000008001f7        0x1 .build/obj_atelier6k_default/quantum/logging/debug.o
                0x00000000008001f7                debug_config
 .bss.debouncing_time
                0x00000000008001f8        0x2 .build/obj_atelier6k_default/quantum/debounce/sym_defer_g.o
 .bss.debouncing
                0x00000000008001fa        0x1 .build/obj_atelier6k_default/quantum/debounce/sym_defer_g.o
 .bss.last_timer_w
                0x00000000008001fb        0x2 .build/obj_atelier6k_default/quantum/mousekey.o
 .bss.last_timer_c
                0x00000000008001fd        0x2 .build/obj_atelier6k_default/quantum/mousekey.o
 .bss.mousekey_wheel_repeat
                0x00000000008001ff        0x1 .build/obj_atelier6k_default/quantum/mousekey.o
 .bss.mousekey_repeat
                0x0000000000800200        0x1 .build/obj_atelier6k_default/quantum/mousekey.o
 .bss.mousekey_accel
                0x0000000000800201        0x1 .build/obj_atelier6k_default/quantum/mousekey.o
 .bss.mouse_report
                0x0000000000800202        0x6 .build/obj_atelier6k_default/quantum/mousekey.o
 .bss.maxval.3488
                0x0000000000800208        0x1 .build/obj_atelier6k_default/quantum/rgblight/rgblight.o
 .bss.low_bound.3459
                0x0000000000800209        0x1 .build/obj_atelier6k_default/quantum/rgblight/rgblight.o
 .bss.pos.3443  0x000000000080020a        0x1 .build/obj_atelier6k_default/quantum/rgblight/rgblight.o
 .bss.animation_status
                0x000000000080020b        0x6 .build/obj_atelier6k_default/quantum/rgblight/rgblight.o
                0x000000000080020b                animation_status
 .bss.is_rgblight_initialized
                0x0000000000800211        0x1 .build/obj_atelier6k_default/quantum/rgblight/rgblight.o
                0x0000000000800211                is_rgblight_initialized
 .bss.rgblight_status
                0x0000000000800212        0x2 .build/obj_atelier6k_default/quantum/rgblight/rgblight.o
                0x0000000000800212                rgblight_status
 .bss.grave_esc_was_shifted
                0x0000000000800214        0x1 .build/obj_atelier6k_default/quantum/process_keycode/process_grave_esc.o
 .bss.sc_timer  0x0000000000800215        0x2 .build/obj_atelier6k_default/quantum/process_keycode/process_space_cadet.o
 .bss.sc_last   0x0000000000800217        0x1 .build/obj_atelier6k_default/quantum/process_keycode/process_space_cadet.o
 .bss.last_consumer_report
                0x0000000000800218        0x2 .build/obj_atelier6k_default/protocol/host.o
 .bss.last_system_report
                0x000000000080021a        0x2 .build/obj_atelier6k_default/protocol/host.o
 .bss.driver    0x000000000080021c        0x2 .build/obj_atelier6k_default/protocol/host.o
 .bss.usb_device_state
                0x000000000080021e        0x1 .build/obj_atelier6k_default/protocol/usb_device_state.o
                0x000000000080021e                usb_device_state
 .bss.wdt_timeout
                0x000000000080021f        0x1 .build/obj_atelier6k_default/platforms/avr/suspend.o
 .bss.keyboard_report_sent
                0x0000000000800220       0x20 .build/obj_atelier6k_default/lufa.o
 .bss.keyboard_led_state
                0x0000000000800240        0x1 .build/obj_atelier6k_default/lufa.o
 .bss.keyboard_idle
                0x0000000000800241        0x1 .build/obj_atelier6k_default/lufa.o
                0x0000000000800241                keyboard_idle
 *(COMMON)
 COMMON         0x0000000000800242        0x2 .build/obj_atelier6k_default/quantum/bootmagic/magic.o
                0x0000000000800242                keymap_config
 COMMON         0x0000000000800244        0x6 .build/obj_atelier6k_default/quantum/matrix_common.o
                0x0000000000800244                raw_matrix
                0x0000000000800247                matrix
 COMMON         0x000000000080024a       0x1d .build/obj_atelier6k_default/quantum/rgblight/rgblight.o
                0x000000000080024a                rgblight_config
                0x000000000080024f                led
 COMMON         0x0000000000800267        0x1 .build/obj_atelier6k_default/quantum/backlight/backlight.o
                0x0000000000800267                backlight_config
 COMMON         0x0000000000800268        0x4 .build/obj_atelier6k_default/platforms/avr/timer.o
                0x0000000000800268                timer_count
 COMMON         0x000000000080026c        0x3 .build/obj_atelier6k_default/lib/lufa/LUFA/Drivers/USB/Core/DeviceStandardReq.o
                0x000000000080026c                USB_Device_ConfigurationNumber
                0x000000000080026d                USB_Device_CurrentlySelfPowered
                0x000000000080026e                USB_Device_RemoteWakeupEnabled
 COMMON         0x000000000080026f        0xa .build/obj_atelier6k_default/lib/lufa/LUFA/Drivers/USB/Core/USBTask.o
                0x000000000080026f                USB_IsInitialized
                0x0000000000800270                USB_DeviceState
                0x0000000000800271                USB_ControlRequest
                0x0000000000800279                PROVIDE (__bss_end = .)
                0x0000000000005dfc                __data_load_start = LOADADDR (.data)
                0x0000000000005e60                __data_load_end = (__data_load_start + SIZEOF (.data))

.noinit         0x0000000000800279        0x4
                [!provide]                        PROVIDE (__noinit_start = .)
 *(.noinit*)
 .noinit        0x0000000000800279        0x4 .build/obj_atelier6k_default/platforms/avr/bootloaders/dfu.o
                0x0000000000800279                reset_key
                [!provide]                        PROVIDE (__noinit_end = .)
                0x000000000080027d                _end = .
                [!provide]                        PROVIDE (__heap_start = .)

.eeprom         0x0000000000810000        0x0
 *(.eeprom*)
                0x0000000000810000                __eeprom_end = .

.fuse
 *(.fuse)
 *(.lfuse)
 *(.hfuse)
 *(.efuse)

.lock
 *(.lock*)

.signature
 *(.signature*)

.stab
 *(.stab)

.stabstr
 *(.stabstr)

.stab.excl
 *(.stab.excl)

.stab.exclstr
 *(.stab.exclstr)

.stab.index
 *(.stab.index)

.stab.indexstr
 *(.stab.indexstr)

.comment        0x0000000000000000       0x11
 *(.comment)
 .comment       0x0000000000000000       0x11 .build/obj_atelier6k_default/keyboards/atelier6k/keymaps/default/keymap.o
                                         0x12 (size before relaxing)
 .comment       0x0000000000000011       0x12 .build/obj_atelier6k_default/quantum/quantum.o
 .comment       0x0000000000000011       0x12 .build/obj_atelier6k_default/quantum/send_string.o
 .comment       0x0000000000000011       0x12 .build/obj_atelier6k_default/quantum/led.o
 .comment       0x0000000000000011       0x12 .build/obj_atelier6k_default/quantum/action.o
 .comment       0x0000000000000011       0x12 .build/obj_atelier6k_default/quantum/action_layer.o
 .comment       0x0000000000000011       0x12 .build/obj_atelier6k_default/quantum/action_tapping.o
 .comment       0x0000000000000011       0x12 .build/obj_atelier6k_default/quantum/action_util.o
 .comment       0x0000000000000011       0x12 .build/obj_atelier6k_default/quantum/eeconfig.o
 .comment       0x0000000000000011       0x12 .build/obj_atelier6k_default/quantum/keyboard.o
 .comment       0x0000000000000011       0x12 .build/obj_atelier6k_default/quantum/keymap_common.o
 .comment       0x0000000000000011       0x12 .build/obj_atelier6k_default/quantum/keycode_config.o
 .comment       0x0000000000000011       0x12 .build/obj_atelier6k_default/quantum/logging/debug.o
 .comment       0x0000000000000011       0x12 .build/obj_atelier6k_default/quantum/logging/sendchar.o
 .comment       0x0000000000000011       0x12 .build/obj_atelier6k_default/quantum/bootmagic/bootmagic_lite.o
 .comment       0x0000000000000011       0x12 .build/obj_atelier6k_default/quantum/bootmagic/magic.o
 .comment       0x0000000000000011       0x12 .build/obj_atelier6k_default/quantum/matrix_common.o
 .comment       0x0000000000000011       0x12 .build/obj_atelier6k_default/quantum/matrix.o
 .comment       0x0000000000000011       0x12 .build/obj_atelier6k_default/quantum/debounce/sym_defer_g.o
 .comment       0x0000000000000011       0x12 .build/obj_atelier6k_default/quantum/main.o
 .comment       0x0000000000000011       0x12 .build/obj_atelier6k_default/quantum/mousekey.o
 .comment       0x0000000000000011       0x12 .build/obj_atelier6k_default/quantum/color.o
 .comment       0x0000000000000011       0x12 .build/obj_atelier6k_default/quantum/rgblight/rgblight.o
 .comment       0x0000000000000011       0x12 .build/obj_atelier6k_default/quantum/process_keycode/process_rgb.o
 .comment       0x0000000000000011       0x12 .build/obj_atelier6k_default/quantum/backlight/backlight.o
 .comment       0x0000000000000011       0x12 .build/obj_atelier6k_default/quantum/process_keycode/process_backlight.o
 .comment       0x0000000000000011       0x12 .build/obj_atelier6k_default/quantum/backlight/backlight_driver_common.o
 .comment       0x0000000000000011       0x12 .build/obj_atelier6k_default/quantum/backlight/backlight_avr.o
 .comment       0x0000000000000011       0x12 .build/obj_atelier6k_default/ws2812.o
 .comment       0x0000000000000011       0x12 .build/obj_atelier6k_default/quantum/led_tables.o
 .comment       0x0000000000000011       0x12 .build/obj_atelier6k_default/quantum/via.o
 .comment       0x0000000000000011       0x12 .build/obj_atelier6k_default/quantum/process_keycode/process_magic.o
 .comment       0x0000000000000011       0x12 .build/obj_atelier6k_default/quantum/dynamic_keymap.o
 .comment       0x0000000000000011       0x12 .build/obj_atelier6k_default/quantum/process_keycode/process_grave_esc.o
 .comment       0x0000000000000011       0x12 .build/obj_atelier6k_default/quantum/process_keycode/process_space_cadet.o
 .comment       0x0000000000000011       0x12 .build/obj_atelier6k_default/platforms/avr/printf.o
 .comment       0x0000000000000011       0x12 .build/obj_atelier6k_default/protocol/host.o
 .comment       0x0000000000000011       0x12 .build/obj_atelier6k_default/protocol/report.o
 .comment       0x0000000000000011       0x12 .build/obj_atelier6k_default/protocol/usb_device_state.o
 .comment       0x0000000000000011       0x12 .build/obj_atelier6k_default/platforms/suspend.o
 .comment       0x0000000000000011       0x12 .build/obj_atelier6k_default/platforms/avr/platform.o
 .comment       0x0000000000000011       0x12 .build/obj_atelier6k_default/platforms/avr/suspend.o
 .comment       0x0000000000000011       0x12 .build/obj_atelier6k_default/platforms/avr/timer.o
 .comment       0x0000000000000011       0x12 .build/obj_atelier6k_default/platforms/avr/bootloaders/dfu.o
 .comment       0x0000000000000011       0x12 .build/obj_atelier6k_default/lufa.o
 .comment       0x0000000000000011       0x12 .build/obj_atelier6k_default/usb_descriptor.o
 .comment       0x0000000000000011       0x12 .build/obj_atelier6k_default/lib/lufa/LUFA/Drivers/USB/Core/AVR8/Device_AVR8.o
 .comment       0x0000000000000011       0x12 .build/obj_atelier6k_default/lib/lufa/LUFA/Drivers/USB/Core/AVR8/EndpointStream_AVR8.o
 .comment       0x0000000000000011       0x12 .build/obj_atelier6k_default/lib/lufa/LUFA/Drivers/USB/Core/AVR8/Endpoint_AVR8.o
 .comment       0x0000000000000011       0x12 .build/obj_atelier6k_default/lib/lufa/LUFA/Drivers/USB/Core/AVR8/USBController_AVR8.o
 .comment       0x0000000000000011       0x12 .build/obj_atelier6k_default/lib/lufa/LUFA/Drivers/USB/Core/AVR8/USBInterrupt_AVR8.o
 .comment       0x0000000000000011       0x12 .build/obj_atelier6k_default/lib/lufa/LUFA/Drivers/USB/Core/DeviceStandardReq.o
 .comment       0x0000000000000011       0x12 .build/obj_atelier6k_default/lib/lufa/LUFA/Drivers/USB/Core/Events.o
 .comment       0x0000000000000011       0x12 .build/obj_atelier6k_default/lib/lufa/LUFA/Drivers/USB/Core/USBTask.o

.note.gnu.avr.deviceinfo
                0x0000000000000000       0x40
 .note.gnu.avr.deviceinfo
                0x0000000000000000       0x40 e:/qmk_msys/mingw64/bin/../lib/gcc/avr/8.4.0/../../../../avr/lib/avr5/crtatmega32u4.o

.note.gnu.build-id
 *(.note.gnu.build-id)

.debug
 *(.debug)

.line
 *(.line)

.debug_srcinfo
 *(.debug_srcinfo)

.debug_sfnames
 *(.debug_sfnames)

.debug_aranges  0x0000000000000000     0x14f8
 *(.debug_aranges)
 .debug_aranges
                0x0000000000000000       0x28 .build/obj_atelier6k_default/keyboards/atelier6k/keymaps/default/keymap.o
 .debug_aranges
                0x0000000000000028      0x100 .build/obj_atelier6k_default/quantum/quantum.o
 .debug_aranges
                0x0000000000000128       0x68 .build/obj_atelier6k_default/quantum/send_string.o
 .debug_aranges
                0x0000000000000190       0x60 .build/obj_atelier6k_default/quantum/led.o
 .debug_aranges
                0x00000000000001f0       0xe0 .build/obj_atelier6k_default/quantum/action.o
 .debug_aranges
                0x00000000000002d0       0xf0 .build/obj_atelier6k_default/quantum/action_layer.o
 .debug_aranges
                0x00000000000003c0       0x40 .build/obj_atelier6k_default/quantum/action_tapping.o
 .debug_aranges
                0x0000000000000400      0x150 .build/obj_atelier6k_default/quantum/action_util.o
 .debug_aranges
                0x0000000000000550       0xd8 .build/obj_atelier6k_default/quantum/eeconfig.o
 .debug_aranges
                0x0000000000000628       0xc0 .build/obj_atelier6k_default/quantum/keyboard.o
 .debug_aranges
                0x00000000000006e8       0x30 .build/obj_atelier6k_default/quantum/keymap_common.o
 .debug_aranges
                0x0000000000000718       0x28 .build/obj_atelier6k_default/quantum/keycode_config.o
 .debug_aranges
                0x0000000000000740       0x18 .build/obj_atelier6k_default/quantum/logging/debug.o
 .debug_aranges
                0x0000000000000758       0x20 .build/obj_atelier6k_default/quantum/logging/sendchar.o
 .debug_aranges
                0x0000000000000778       0x30 .build/obj_atelier6k_default/quantum/bootmagic/bootmagic_lite.o
 .debug_aranges
                0x00000000000007a8       0x28 .build/obj_atelier6k_default/quantum/bootmagic/magic.o
 .debug_aranges
                0x00000000000007d0       0x88 .build/obj_atelier6k_default/quantum/matrix_common.o
 .debug_aranges
                0x0000000000000858       0x40 .build/obj_atelier6k_default/quantum/matrix.o
 .debug_aranges
                0x0000000000000898       0x30 .build/obj_atelier6k_default/quantum/debounce/sym_defer_g.o
 .debug_aranges
                0x00000000000008c8       0x30 .build/obj_atelier6k_default/quantum/main.o
 .debug_aranges
                0x00000000000008f8       0x58 .build/obj_atelier6k_default/quantum/mousekey.o
 .debug_aranges
                0x0000000000000950       0x38 .build/obj_atelier6k_default/quantum/color.o
 .debug_aranges
                0x0000000000000988      0x318 .build/obj_atelier6k_default/quantum/rgblight/rgblight.o
 .debug_aranges
                0x0000000000000ca0       0x30 .build/obj_atelier6k_default/quantum/process_keycode/process_rgb.o
 .debug_aranges
                0x0000000000000cd0       0xa0 .build/obj_atelier6k_default/quantum/backlight/backlight.o
 .debug_aranges
                0x0000000000000d70       0x20 .build/obj_atelier6k_default/quantum/process_keycode/process_backlight.o
 .debug_aranges
                0x0000000000000d90       0x30 .build/obj_atelier6k_default/quantum/backlight/backlight_driver_common.o
 .debug_aranges
                0x0000000000000dc0       0x40 .build/obj_atelier6k_default/quantum/backlight/backlight_avr.o
 .debug_aranges
                0x0000000000000e00       0x20 .build/obj_atelier6k_default/ws2812.o
 .debug_aranges
                0x0000000000000e20       0x18 .build/obj_atelier6k_default/quantum/led_tables.o
 .debug_aranges
                0x0000000000000e38       0x90 .build/obj_atelier6k_default/quantum/via.o
 .debug_aranges
                0x0000000000000ec8       0x20 .build/obj_atelier6k_default/quantum/process_keycode/process_magic.o
 .debug_aranges
                0x0000000000000ee8       0x88 .build/obj_atelier6k_default/quantum/dynamic_keymap.o
 .debug_aranges
                0x0000000000000f70       0x20 .build/obj_atelier6k_default/quantum/process_keycode/process_grave_esc.o
 .debug_aranges
                0x0000000000000f90       0x28 .build/obj_atelier6k_default/quantum/process_keycode/process_space_cadet.o
 .debug_aranges
                0x0000000000000fb8       0x20 .build/obj_atelier6k_default/platforms/avr/printf.o
 .debug_aranges
                0x0000000000000fd8       0x88 .build/obj_atelier6k_default/protocol/host.o
 .debug_aranges
                0x0000000000001060       0x70 .build/obj_atelier6k_default/protocol/report.o
 .debug_aranges
                0x00000000000010d0       0x40 .build/obj_atelier6k_default/protocol/usb_device_state.o
 .debug_aranges
                0x0000000000001110       0x38 .build/obj_atelier6k_default/platforms/suspend.o
 .debug_aranges
                0x0000000000001148       0x20 .build/obj_atelier6k_default/platforms/avr/platform.o
 .debug_aranges
                0x0000000000001168       0x30 .build/obj_atelier6k_default/platforms/avr/suspend.o
 .debug_aranges
                0x0000000000001198       0x50 .build/obj_atelier6k_default/platforms/avr/timer.o
 .debug_aranges
                0x00000000000011e8       0x30 .build/obj_atelier6k_default/platforms/avr/bootloaders/dfu.o
 .debug_aranges
                0x0000000000001218       0xc0 .build/obj_atelier6k_default/lufa.o
 .debug_aranges
                0x00000000000012d8       0x20 .build/obj_atelier6k_default/usb_descriptor.o
 .debug_aranges
                0x00000000000012f8       0x20 .build/obj_atelier6k_default/lib/lufa/LUFA/Drivers/USB/Core/AVR8/Device_AVR8.o
 .debug_aranges
                0x0000000000001318       0xc8 .build/obj_atelier6k_default/lib/lufa/LUFA/Drivers/USB/Core/AVR8/EndpointStream_AVR8.o
 .debug_aranges
                0x00000000000013e0       0x40 .build/obj_atelier6k_default/lib/lufa/LUFA/Drivers/USB/Core/AVR8/Endpoint_AVR8.o
 .debug_aranges
                0x0000000000001420       0x30 .build/obj_atelier6k_default/lib/lufa/LUFA/Drivers/USB/Core/AVR8/USBController_AVR8.o
 .debug_aranges
                0x0000000000001450       0x38 .build/obj_atelier6k_default/lib/lufa/LUFA/Drivers/USB/Core/AVR8/USBInterrupt_AVR8.o
 .debug_aranges
                0x0000000000001488       0x20 .build/obj_atelier6k_default/lib/lufa/LUFA/Drivers/USB/Core/DeviceStandardReq.o
 .debug_aranges
                0x00000000000014a8       0x30 .build/obj_atelier6k_default/lib/lufa/LUFA/Drivers/USB/Core/Events.o
 .debug_aranges
                0x00000000000014d8       0x20 .build/obj_atelier6k_default/lib/lufa/LUFA/Drivers/USB/Core/USBTask.o

.debug_pubnames
 *(.debug_pubnames)

.debug_info     0x0000000000000000    0x301ab
 *(.debug_info .gnu.linkonce.wi.*)
 .debug_info    0x0000000000000000      0x9f4 e:/qmk_msys/mingw64/bin/../lib/gcc/avr/8.4.0/../../../../avr/lib/avr5/crtatmega32u4.o
 .debug_info    0x00000000000009f4     0x1cb9 .build/obj_atelier6k_default/keyboards/atelier6k/keymaps/default/keymap.o
 .debug_info    0x00000000000026ad     0x2ac3 .build/obj_atelier6k_default/quantum/quantum.o
 .debug_info    0x0000000000005170     0x17c0 .build/obj_atelier6k_default/quantum/send_string.o
 .debug_info    0x0000000000006930      0x5ae .build/obj_atelier6k_default/quantum/led.o
 .debug_info    0x0000000000006ede     0x23af .build/obj_atelier6k_default/quantum/action.o
 .debug_info    0x000000000000928d     0x11ba .build/obj_atelier6k_default/quantum/action_layer.o
 .debug_info    0x000000000000a447      0xef1 .build/obj_atelier6k_default/quantum/action_tapping.o
 .debug_info    0x000000000000b338      0xea3 .build/obj_atelier6k_default/quantum/action_util.o
 .debug_info    0x000000000000c1db      0x8ff .build/obj_atelier6k_default/quantum/eeconfig.o
 .debug_info    0x000000000000cada     0x112e .build/obj_atelier6k_default/quantum/keyboard.o
 .debug_info    0x000000000000dc08     0x2129 .build/obj_atelier6k_default/quantum/keymap_common.o
 .debug_info    0x000000000000fd31      0x64e .build/obj_atelier6k_default/quantum/keycode_config.o
 .debug_info    0x000000000001037f      0x110 .build/obj_atelier6k_default/quantum/logging/debug.o
 .debug_info    0x000000000001048f       0xa8 .build/obj_atelier6k_default/quantum/logging/sendchar.o
 .debug_info    0x0000000000010537      0xb5f .build/obj_atelier6k_default/quantum/bootmagic/bootmagic_lite.o
 .debug_info    0x0000000000011096      0x6fc .build/obj_atelier6k_default/quantum/bootmagic/magic.o
 .debug_info    0x0000000000011792      0xe26 .build/obj_atelier6k_default/quantum/matrix_common.o
 .debug_info    0x00000000000125b8     0x106f .build/obj_atelier6k_default/quantum/matrix.o
 .debug_info    0x0000000000013627      0xb6f .build/obj_atelier6k_default/quantum/debounce/sym_defer_g.o
 .debug_info    0x0000000000014196      0x1b9 .build/obj_atelier6k_default/quantum/main.o
 .debug_info    0x000000000001434f      0x868 .build/obj_atelier6k_default/quantum/mousekey.o
 .debug_info    0x0000000000014bb7      0x378 .build/obj_atelier6k_default/quantum/color.o
 .debug_info    0x0000000000014f2f     0x31ec .build/obj_atelier6k_default/quantum/rgblight/rgblight.o
 .debug_info    0x000000000001811b     0x1ef0 .build/obj_atelier6k_default/quantum/process_keycode/process_rgb.o
 .debug_info    0x000000000001a00b      0xde0 .build/obj_atelier6k_default/quantum/backlight/backlight.o
 .debug_info    0x000000000001adeb     0x18d7 .build/obj_atelier6k_default/quantum/process_keycode/process_backlight.o
 .debug_info    0x000000000001c6c2      0xad7 .build/obj_atelier6k_default/quantum/backlight/backlight_driver_common.o
 .debug_info    0x000000000001d199      0xbb3 .build/obj_atelier6k_default/quantum/backlight/backlight_avr.o
 .debug_info    0x000000000001dd4c      0x2af .build/obj_atelier6k_default/ws2812.o
 .debug_info    0x000000000001dffb       0x93 .build/obj_atelier6k_default/quantum/led_tables.o
 .debug_info    0x000000000001e08e     0x18bf .build/obj_atelier6k_default/quantum/via.o
 .debug_info    0x000000000001f94d     0x18db .build/obj_atelier6k_default/quantum/process_keycode/process_magic.o
 .debug_info    0x0000000000021228     0x159a .build/obj_atelier6k_default/quantum/dynamic_keymap.o
 .debug_info    0x00000000000227c2     0x1d3b .build/obj_atelier6k_default/quantum/process_keycode/process_grave_esc.o
 .debug_info    0x00000000000244fd     0x1deb .build/obj_atelier6k_default/quantum/process_keycode/process_space_cadet.o
 .debug_info    0x00000000000262e8       0xe7 .build/obj_atelier6k_default/platforms/avr/printf.o
 .debug_info    0x00000000000263cf      0xfc5 .build/obj_atelier6k_default/protocol/host.o
 .debug_info    0x0000000000027394      0xd83 .build/obj_atelier6k_default/protocol/report.o
 .debug_info    0x0000000000028117      0x2a3 .build/obj_atelier6k_default/protocol/usb_device_state.o
 .debug_info    0x00000000000283ba      0x177 .build/obj_atelier6k_default/platforms/suspend.o
 .debug_info    0x0000000000028531       0xa9 .build/obj_atelier6k_default/platforms/avr/platform.o
 .debug_info    0x00000000000285da      0x61b .build/obj_atelier6k_default/platforms/avr/suspend.o
 .debug_info    0x0000000000028bf5      0x443 .build/obj_atelier6k_default/platforms/avr/timer.o
 .debug_info    0x0000000000029038      0x1e2 .build/obj_atelier6k_default/platforms/avr/bootloaders/dfu.o
 .debug_info    0x000000000002921a     0x1e15 .build/obj_atelier6k_default/lufa.o
 .debug_info    0x000000000002b02f      0xa36 .build/obj_atelier6k_default/usb_descriptor.o
 .debug_info    0x000000000002ba65      0x1c0 .build/obj_atelier6k_default/lib/lufa/LUFA/Drivers/USB/Core/AVR8/Device_AVR8.o
 .debug_info    0x000000000002bc25     0x1da4 .build/obj_atelier6k_default/lib/lufa/LUFA/Drivers/USB/Core/AVR8/EndpointStream_AVR8.o
 .debug_info    0x000000000002d9c9      0x75d .build/obj_atelier6k_default/lib/lufa/LUFA/Drivers/USB/Core/AVR8/Endpoint_AVR8.o
 .debug_info    0x000000000002e126      0x605 .build/obj_atelier6k_default/lib/lufa/LUFA/Drivers/USB/Core/AVR8/USBController_AVR8.o
 .debug_info    0x000000000002e72b      0xa43 .build/obj_atelier6k_default/lib/lufa/LUFA/Drivers/USB/Core/AVR8/USBInterrupt_AVR8.o
 .debug_info    0x000000000002f16e      0xc59 .build/obj_atelier6k_default/lib/lufa/LUFA/Drivers/USB/Core/DeviceStandardReq.o
 .debug_info    0x000000000002fdc7       0xe9 .build/obj_atelier6k_default/lib/lufa/LUFA/Drivers/USB/Core/Events.o
 .debug_info    0x000000000002feb0      0x2fb .build/obj_atelier6k_default/lib/lufa/LUFA/Drivers/USB/Core/USBTask.o

.debug_abbrev   0x0000000000000000     0x92b0
 *(.debug_abbrev)
 .debug_abbrev  0x0000000000000000      0x96a e:/qmk_msys/mingw64/bin/../lib/gcc/avr/8.4.0/../../../../avr/lib/avr5/crtatmega32u4.o
 .debug_abbrev  0x000000000000096a      0x280 .build/obj_atelier6k_default/keyboards/atelier6k/keymaps/default/keymap.o
 .debug_abbrev  0x0000000000000bea      0x4e1 .build/obj_atelier6k_default/quantum/quantum.o
 .debug_abbrev  0x00000000000010cb      0x3d7 .build/obj_atelier6k_default/quantum/send_string.o
 .debug_abbrev  0x00000000000014a2      0x25a .build/obj_atelier6k_default/quantum/led.o
 .debug_abbrev  0x00000000000016fc      0x4c3 .build/obj_atelier6k_default/quantum/action.o
 .debug_abbrev  0x0000000000001bbf      0x3a1 .build/obj_atelier6k_default/quantum/action_layer.o
 .debug_abbrev  0x0000000000001f60      0x33c .build/obj_atelier6k_default/quantum/action_tapping.o
 .debug_abbrev  0x000000000000229c      0x394 .build/obj_atelier6k_default/quantum/action_util.o
 .debug_abbrev  0x0000000000002630      0x15d .build/obj_atelier6k_default/quantum/eeconfig.o
 .debug_abbrev  0x000000000000278d      0x401 .build/obj_atelier6k_default/quantum/keyboard.o
 .debug_abbrev  0x0000000000002b8e      0x2fe .build/obj_atelier6k_default/quantum/keymap_common.o
 .debug_abbrev  0x0000000000002e8c      0x119 .build/obj_atelier6k_default/quantum/keycode_config.o
 .debug_abbrev  0x0000000000002fa5       0xa2 .build/obj_atelier6k_default/quantum/logging/debug.o
 .debug_abbrev  0x0000000000003047       0x6b .build/obj_atelier6k_default/quantum/logging/sendchar.o
 .debug_abbrev  0x00000000000030b2      0x2e9 .build/obj_atelier6k_default/quantum/bootmagic/bootmagic_lite.o
 .debug_abbrev  0x000000000000339b      0x1f1 .build/obj_atelier6k_default/quantum/bootmagic/magic.o
 .debug_abbrev  0x000000000000358c      0x40a .build/obj_atelier6k_default/quantum/matrix_common.o
 .debug_abbrev  0x0000000000003996      0x468 .build/obj_atelier6k_default/quantum/matrix.o
 .debug_abbrev  0x0000000000003dfe      0x33e .build/obj_atelier6k_default/quantum/debounce/sym_defer_g.o
 .debug_abbrev  0x000000000000413c       0x85 .build/obj_atelier6k_default/quantum/main.o
 .debug_abbrev  0x00000000000041c1      0x2ff .build/obj_atelier6k_default/quantum/mousekey.o
 .debug_abbrev  0x00000000000044c0      0x17d .build/obj_atelier6k_default/quantum/color.o
 .debug_abbrev  0x000000000000463d      0x682 .build/obj_atelier6k_default/quantum/rgblight/rgblight.o
 .debug_abbrev  0x0000000000004cbf      0x2e0 .build/obj_atelier6k_default/quantum/process_keycode/process_rgb.o
 .debug_abbrev  0x0000000000004f9f      0x33a .build/obj_atelier6k_default/quantum/backlight/backlight.o
 .debug_abbrev  0x00000000000052d9      0x24b .build/obj_atelier6k_default/quantum/process_keycode/process_backlight.o
 .debug_abbrev  0x0000000000005524      0x273 .build/obj_atelier6k_default/quantum/backlight/backlight_driver_common.o
 .debug_abbrev  0x0000000000005797      0x33d .build/obj_atelier6k_default/quantum/backlight/backlight_avr.o
 .debug_abbrev  0x0000000000005ad4      0x16c .build/obj_atelier6k_default/ws2812.o
 .debug_abbrev  0x0000000000005c40       0x6c .build/obj_atelier6k_default/quantum/led_tables.o
 .debug_abbrev  0x0000000000005cac      0x3d0 .build/obj_atelier6k_default/quantum/via.o
 .debug_abbrev  0x000000000000607c      0x24b .build/obj_atelier6k_default/quantum/process_keycode/process_magic.o
 .debug_abbrev  0x00000000000062c7      0x371 .build/obj_atelier6k_default/quantum/dynamic_keymap.o
 .debug_abbrev  0x0000000000006638      0x299 .build/obj_atelier6k_default/quantum/process_keycode/process_grave_esc.o
 .debug_abbrev  0x00000000000068d1      0x291 .build/obj_atelier6k_default/quantum/process_keycode/process_space_cadet.o
 .debug_abbrev  0x0000000000006b62       0x9d .build/obj_atelier6k_default/platforms/avr/printf.o
 .debug_abbrev  0x0000000000006bff      0x380 .build/obj_atelier6k_default/protocol/host.o
 .debug_abbrev  0x0000000000006f7f      0x2d5 .build/obj_atelier6k_default/protocol/report.o
 .debug_abbrev  0x0000000000007254      0x160 .build/obj_atelier6k_default/protocol/usb_device_state.o
 .debug_abbrev  0x00000000000073b4       0xf3 .build/obj_atelier6k_default/platforms/suspend.o
 .debug_abbrev  0x00000000000074a7       0x7e .build/obj_atelier6k_default/platforms/avr/platform.o
 .debug_abbrev  0x0000000000007525      0x267 .build/obj_atelier6k_default/platforms/avr/suspend.o
 .debug_abbrev  0x000000000000778c      0x1ba .build/obj_atelier6k_default/platforms/avr/timer.o
 .debug_abbrev  0x0000000000007946      0x140 .build/obj_atelier6k_default/platforms/avr/bootloaders/dfu.o
 .debug_abbrev  0x0000000000007a86      0x672 .build/obj_atelier6k_default/lufa.o
 .debug_abbrev  0x00000000000080f8      0x207 .build/obj_atelier6k_default/usb_descriptor.o
 .debug_abbrev  0x00000000000082ff       0xcb .build/obj_atelier6k_default/lib/lufa/LUFA/Drivers/USB/Core/AVR8/Device_AVR8.o
 .debug_abbrev  0x00000000000083ca      0x23b .build/obj_atelier6k_default/lib/lufa/LUFA/Drivers/USB/Core/AVR8/EndpointStream_AVR8.o
 .debug_abbrev  0x0000000000008605      0x29d .build/obj_atelier6k_default/lib/lufa/LUFA/Drivers/USB/Core/AVR8/Endpoint_AVR8.o
 .debug_abbrev  0x00000000000088a2      0x1e7 .build/obj_atelier6k_default/lib/lufa/LUFA/Drivers/USB/Core/AVR8/USBController_AVR8.o
 .debug_abbrev  0x0000000000008a89      0x2a5 .build/obj_atelier6k_default/lib/lufa/LUFA/Drivers/USB/Core/AVR8/USBInterrupt_AVR8.o
 .debug_abbrev  0x0000000000008d2e      0x346 .build/obj_atelier6k_default/lib/lufa/LUFA/Drivers/USB/Core/DeviceStandardReq.o
 .debug_abbrev  0x0000000000009074       0x89 .build/obj_atelier6k_default/lib/lufa/LUFA/Drivers/USB/Core/Events.o
 .debug_abbrev  0x00000000000090fd      0x1b3 .build/obj_atelier6k_default/lib/lufa/LUFA/Drivers/USB/Core/USBTask.o

.debug_line     0x0000000000000000    0x1b3c8
 *(.debug_line .debug_line.* .debug_line_end)
 .debug_line    0x0000000000000000       0x1d e:/qmk_msys/mingw64/bin/../lib/gcc/avr/8.4.0/../../../../avr/lib/avr5/crtatmega32u4.o
 .debug_line    0x000000000000001d      0x2e8 .build/obj_atelier6k_default/keyboards/atelier6k/keymaps/default/keymap.o
 .debug_line    0x0000000000000305      0xffa .build/obj_atelier6k_default/quantum/quantum.o
 .debug_line    0x00000000000012ff      0xcfd .build/obj_atelier6k_default/quantum/send_string.o
 .debug_line    0x0000000000001ffc      0x30c .build/obj_atelier6k_default/quantum/led.o
 .debug_line    0x0000000000002308     0x16a1 .build/obj_atelier6k_default/quantum/action.o
 .debug_line    0x00000000000039a9      0xa7b .build/obj_atelier6k_default/quantum/action_layer.o
 .debug_line    0x0000000000004424      0xd12 .build/obj_atelier6k_default/quantum/action_tapping.o
 .debug_line    0x0000000000005136      0xb5e .build/obj_atelier6k_default/quantum/action_util.o
 .debug_line    0x0000000000005c94      0x5ae .build/obj_atelier6k_default/quantum/eeconfig.o
 .debug_line    0x0000000000006242      0x8fd .build/obj_atelier6k_default/quantum/keyboard.o
 .debug_line    0x0000000000006b3f      0x629 .build/obj_atelier6k_default/quantum/keymap_common.o
 .debug_line    0x0000000000007168      0x57a .build/obj_atelier6k_default/quantum/keycode_config.o
 .debug_line    0x00000000000076e2       0x6f .build/obj_atelier6k_default/quantum/logging/debug.o
 .debug_line    0x0000000000007751       0x90 .build/obj_atelier6k_default/quantum/logging/sendchar.o
 .debug_line    0x00000000000077e1      0x3bd .build/obj_atelier6k_default/quantum/bootmagic/bootmagic_lite.o
 .debug_line    0x0000000000007b9e      0x27f .build/obj_atelier6k_default/quantum/bootmagic/magic.o
 .debug_line    0x0000000000007e1d      0x661 .build/obj_atelier6k_default/quantum/matrix_common.o
 .debug_line    0x000000000000847e      0x833 .build/obj_atelier6k_default/quantum/matrix.o
 .debug_line    0x0000000000008cb1      0x3ef .build/obj_atelier6k_default/quantum/debounce/sym_defer_g.o
 .debug_line    0x00000000000090a0       0xf3 .build/obj_atelier6k_default/quantum/main.o
 .debug_line    0x0000000000009193      0xeb2 .build/obj_atelier6k_default/quantum/mousekey.o
 .debug_line    0x000000000000a045      0x388 .build/obj_atelier6k_default/quantum/color.o
 .debug_line    0x000000000000a3cd     0x32cf .build/obj_atelier6k_default/quantum/rgblight/rgblight.o
 .debug_line    0x000000000000d69c      0x50d .build/obj_atelier6k_default/quantum/process_keycode/process_rgb.o
 .debug_line    0x000000000000dba9      0x840 .build/obj_atelier6k_default/quantum/backlight/backlight.o
 .debug_line    0x000000000000e3e9      0x363 .build/obj_atelier6k_default/quantum/process_keycode/process_backlight.o
 .debug_line    0x000000000000e74c      0x33a .build/obj_atelier6k_default/quantum/backlight/backlight_driver_common.o
 .debug_line    0x000000000000ea86      0x5ae .build/obj_atelier6k_default/quantum/backlight/backlight_avr.o
 .debug_line    0x000000000000f034      0x1e0 .build/obj_atelier6k_default/ws2812.o
 .debug_line    0x000000000000f214       0x71 .build/obj_atelier6k_default/quantum/led_tables.o
 .debug_line    0x000000000000f285      0xdd1 .build/obj_atelier6k_default/quantum/via.o
 .debug_line    0x0000000000010056      0x592 .build/obj_atelier6k_default/quantum/process_keycode/process_magic.o
 .debug_line    0x00000000000105e8      0xb6f .build/obj_atelier6k_default/quantum/dynamic_keymap.o
 .debug_line    0x0000000000011157      0x391 .build/obj_atelier6k_default/quantum/process_keycode/process_grave_esc.o
 .debug_line    0x00000000000114e8      0x54e .build/obj_atelier6k_default/quantum/process_keycode/process_space_cadet.o
 .debug_line    0x0000000000011a36       0xb1 .build/obj_atelier6k_default/platforms/avr/printf.o
 .debug_line    0x0000000000011ae7      0x687 .build/obj_atelier6k_default/protocol/host.o
 .debug_line    0x000000000001216e      0x78b .build/obj_atelier6k_default/protocol/report.o
 .debug_line    0x00000000000128f9      0x1e2 .build/obj_atelier6k_default/protocol/usb_device_state.o
 .debug_line    0x0000000000012adb      0x190 .build/obj_atelier6k_default/platforms/suspend.o
 .debug_line    0x0000000000012c6b       0xb2 .build/obj_atelier6k_default/platforms/avr/platform.o
 .debug_line    0x0000000000012d1d      0x321 .build/obj_atelier6k_default/platforms/avr/suspend.o
 .debug_line    0x000000000001303e      0x4ab .build/obj_atelier6k_default/platforms/avr/timer.o
 .debug_line    0x00000000000134e9      0x264 .build/obj_atelier6k_default/platforms/avr/bootloaders/dfu.o
 .debug_line    0x000000000001374d     0x14ec .build/obj_atelier6k_default/lufa.o
 .debug_line    0x0000000000014c39      0x34e .build/obj_atelier6k_default/usb_descriptor.o
 .debug_line    0x0000000000014f87      0x244 .build/obj_atelier6k_default/lib/lufa/LUFA/Drivers/USB/Core/AVR8/Device_AVR8.o
 .debug_line    0x00000000000151cb     0x33a1 .build/obj_atelier6k_default/lib/lufa/LUFA/Drivers/USB/Core/AVR8/EndpointStream_AVR8.o
 .debug_line    0x000000000001856c      0x9da .build/obj_atelier6k_default/lib/lufa/LUFA/Drivers/USB/Core/AVR8/Endpoint_AVR8.o
 .debug_line    0x0000000000018f46      0x698 .build/obj_atelier6k_default/lib/lufa/LUFA/Drivers/USB/Core/AVR8/USBController_AVR8.o
 .debug_line    0x00000000000195de      0xd27 .build/obj_atelier6k_default/lib/lufa/LUFA/Drivers/USB/Core/AVR8/USBInterrupt_AVR8.o
 .debug_line    0x000000000001a305      0xd81 .build/obj_atelier6k_default/lib/lufa/LUFA/Drivers/USB/Core/DeviceStandardReq.o
 .debug_line    0x000000000001b086       0xe4 .build/obj_atelier6k_default/lib/lufa/LUFA/Drivers/USB/Core/Events.o
 .debug_line    0x000000000001b16a      0x25e .build/obj_atelier6k_default/lib/lufa/LUFA/Drivers/USB/Core/USBTask.o

.debug_frame    0x0000000000000000     0x2fb8
 *(.debug_frame)
 .debug_frame   0x0000000000000000       0x44 .build/obj_atelier6k_default/keyboards/atelier6k/keymaps/default/keymap.o
 .debug_frame   0x0000000000000044      0x2c4 .build/obj_atelier6k_default/quantum/quantum.o
 .debug_frame   0x0000000000000308      0x12c .build/obj_atelier6k_default/quantum/send_string.o
 .debug_frame   0x0000000000000434       0xac .build/obj_atelier6k_default/quantum/led.o
 .debug_frame   0x00000000000004e0      0x21c .build/obj_atelier6k_default/quantum/action.o
 .debug_frame   0x00000000000006fc      0x224 .build/obj_atelier6k_default/quantum/action_layer.o
 .debug_frame   0x0000000000000920       0xa8 .build/obj_atelier6k_default/quantum/action_tapping.o
 .debug_frame   0x00000000000009c8      0x2b0 .build/obj_atelier6k_default/quantum/action_util.o
 .debug_frame   0x0000000000000c78      0x1a4 .build/obj_atelier6k_default/quantum/eeconfig.o
 .debug_frame   0x0000000000000e1c      0x1d0 .build/obj_atelier6k_default/quantum/keyboard.o
 .debug_frame   0x0000000000000fec       0x50 .build/obj_atelier6k_default/quantum/keymap_common.o
 .debug_frame   0x000000000000103c       0x34 .build/obj_atelier6k_default/quantum/keycode_config.o
 .debug_frame   0x0000000000001070       0x24 .build/obj_atelier6k_default/quantum/logging/sendchar.o
 .debug_frame   0x0000000000001094       0x44 .build/obj_atelier6k_default/quantum/bootmagic/bootmagic_lite.o
 .debug_frame   0x00000000000010d8       0x34 .build/obj_atelier6k_default/quantum/bootmagic/magic.o
 .debug_frame   0x000000000000110c      0x12c .build/obj_atelier6k_default/quantum/matrix_common.o
 .debug_frame   0x0000000000001238       0x84 .build/obj_atelier6k_default/quantum/matrix.o
 .debug_frame   0x00000000000012bc       0x60 .build/obj_atelier6k_default/quantum/debounce/sym_defer_g.o
 .debug_frame   0x000000000000131c       0x44 .build/obj_atelier6k_default/quantum/main.o
 .debug_frame   0x0000000000001360       0xa8 .build/obj_atelier6k_default/quantum/mousekey.o
 .debug_frame   0x0000000000001408       0x74 .build/obj_atelier6k_default/quantum/color.o
 .debug_frame   0x000000000000147c      0x780 .build/obj_atelier6k_default/quantum/rgblight/rgblight.o
 .debug_frame   0x0000000000001bfc       0x60 .build/obj_atelier6k_default/quantum/process_keycode/process_rgb.o
 .debug_frame   0x0000000000001c5c      0x134 .build/obj_atelier6k_default/quantum/backlight/backlight.o
 .debug_frame   0x0000000000001d90       0x24 .build/obj_atelier6k_default/quantum/process_keycode/process_backlight.o
 .debug_frame   0x0000000000001db4       0x44 .build/obj_atelier6k_default/quantum/backlight/backlight_driver_common.o
 .debug_frame   0x0000000000001df8      0x110 .build/obj_atelier6k_default/quantum/backlight/backlight_avr.o
 .debug_frame   0x0000000000001f08       0x24 .build/obj_atelier6k_default/ws2812.o
 .debug_frame   0x0000000000001f2c      0x15c .build/obj_atelier6k_default/quantum/via.o
 .debug_frame   0x0000000000002088       0x30 .build/obj_atelier6k_default/quantum/process_keycode/process_magic.o
 .debug_frame   0x00000000000020b8      0x1d4 .build/obj_atelier6k_default/quantum/dynamic_keymap.o
 .debug_frame   0x000000000000228c       0x30 .build/obj_atelier6k_default/quantum/process_keycode/process_grave_esc.o
 .debug_frame   0x00000000000022bc       0x50 .build/obj_atelier6k_default/quantum/process_keycode/process_space_cadet.o
 .debug_frame   0x000000000000230c       0x24 .build/obj_atelier6k_default/platforms/avr/printf.o
 .debug_frame   0x0000000000002330      0x10c .build/obj_atelier6k_default/protocol/host.o
 .debug_frame   0x000000000000243c       0xd0 .build/obj_atelier6k_default/protocol/report.o
 .debug_frame   0x000000000000250c       0x84 .build/obj_atelier6k_default/protocol/usb_device_state.o
 .debug_frame   0x0000000000002590       0x8c .build/obj_atelier6k_default/platforms/suspend.o
 .debug_frame   0x000000000000261c       0x24 .build/obj_atelier6k_default/platforms/avr/platform.o
 .debug_frame   0x0000000000002640       0x54 .build/obj_atelier6k_default/platforms/avr/suspend.o
 .debug_frame   0x0000000000002694       0xa8 .build/obj_atelier6k_default/platforms/avr/timer.o
 .debug_frame   0x000000000000273c       0x44 .build/obj_atelier6k_default/platforms/avr/bootloaders/dfu.o
 .debug_frame   0x0000000000002780      0x190 .build/obj_atelier6k_default/lufa.o
 .debug_frame   0x0000000000002910       0x24 .build/obj_atelier6k_default/usb_descriptor.o
 .debug_frame   0x0000000000002934       0x24 .build/obj_atelier6k_default/lib/lufa/LUFA/Drivers/USB/Core/AVR8/Device_AVR8.o
 .debug_frame   0x0000000000002958      0x404 .build/obj_atelier6k_default/lib/lufa/LUFA/Drivers/USB/Core/AVR8/EndpointStream_AVR8.o
 .debug_frame   0x0000000000002d5c       0x78 .build/obj_atelier6k_default/lib/lufa/LUFA/Drivers/USB/Core/AVR8/Endpoint_AVR8.o
 .debug_frame   0x0000000000002dd4       0x58 .build/obj_atelier6k_default/lib/lufa/LUFA/Drivers/USB/Core/AVR8/USBController_AVR8.o
 .debug_frame   0x0000000000002e2c       0xec .build/obj_atelier6k_default/lib/lufa/LUFA/Drivers/USB/Core/AVR8/USBInterrupt_AVR8.o
 .debug_frame   0x0000000000002f18       0x30 .build/obj_atelier6k_default/lib/lufa/LUFA/Drivers/USB/Core/DeviceStandardReq.o
 .debug_frame   0x0000000000002f48       0x44 .build/obj_atelier6k_default/lib/lufa/LUFA/Drivers/USB/Core/Events.o
 .debug_frame   0x0000000000002f8c       0x2c .build/obj_atelier6k_default/lib/lufa/LUFA/Drivers/USB/Core/USBTask.o

.debug_str      0x0000000000000000     0x83d9
 *(.debug_str)
 .debug_str     0x0000000000000000      0x371 e:/qmk_msys/mingw64/bin/../lib/gcc/avr/8.4.0/../../../../avr/lib/avr5/crtatmega32u4.o
 .debug_str     0x0000000000000371     0x24d4 .build/obj_atelier6k_default/keyboards/atelier6k/keymaps/default/keymap.o
                                       0x25d0 (size before relaxing)
 .debug_str     0x0000000000002845      0x475 .build/obj_atelier6k_default/quantum/quantum.o
                                       0x2a8b (size before relaxing)
 .debug_str     0x0000000000002cba       0xeb .build/obj_atelier6k_default/quantum/send_string.o
                                       0x1088 (size before relaxing)
 .debug_str     0x0000000000002da5       0xca .build/obj_atelier6k_default/quantum/led.o
                                        0x3fd (size before relaxing)
 .debug_str     0x0000000000002e6f      0x996 .build/obj_atelier6k_default/quantum/action.o
                                       0x1885 (size before relaxing)
 .debug_str     0x0000000000003805      0x11a .build/obj_atelier6k_default/quantum/action_layer.o
                                        0x967 (size before relaxing)
 .debug_str     0x000000000000391f       0xde .build/obj_atelier6k_default/quantum/action_tapping.o
                                        0xc6a (size before relaxing)
 .debug_str     0x00000000000039fd      0x27b .build/obj_atelier6k_default/quantum/action_util.o
                                        0x8c3 (size before relaxing)
 .debug_str     0x0000000000003c78      0x296 .build/obj_atelier6k_default/quantum/eeconfig.o
                                        0x4af (size before relaxing)
 .debug_str     0x0000000000003f0e      0x3b2 .build/obj_atelier6k_default/quantum/keyboard.o
                                        0xd22 (size before relaxing)
 .debug_str     0x00000000000042c0       0x57 .build/obj_atelier6k_default/quantum/keymap_common.o
                                       0x28d9 (size before relaxing)
 .debug_str     0x0000000000004317       0x6a .build/obj_atelier6k_default/quantum/keycode_config.o
                                        0x99e (size before relaxing)
 .debug_str     0x0000000000004381       0x18 .build/obj_atelier6k_default/quantum/logging/debug.o
                                        0x1db (size before relaxing)
 .debug_str     0x0000000000004399       0x1b .build/obj_atelier6k_default/quantum/logging/sendchar.o
                                        0x1a6 (size before relaxing)
 .debug_str     0x00000000000043b4       0x58 .build/obj_atelier6k_default/quantum/bootmagic/bootmagic_lite.o
                                        0x93a (size before relaxing)
 .debug_str     0x000000000000440c       0x1a .build/obj_atelier6k_default/quantum/bootmagic/magic.o
                                        0x67d (size before relaxing)
 .debug_str     0x0000000000004426      0x110 .build/obj_atelier6k_default/quantum/matrix_common.o
                                        0xa64 (size before relaxing)
 .debug_str     0x0000000000004536      0x112 .build/obj_atelier6k_default/quantum/matrix.o
                                        0xa50 (size before relaxing)
 .debug_str     0x0000000000004648       0x96 .build/obj_atelier6k_default/quantum/debounce/sym_defer_g.o
                                        0x936 (size before relaxing)
 .debug_str     0x00000000000046de       0x98 .build/obj_atelier6k_default/quantum/main.o
                                        0x24e (size before relaxing)
 .debug_str     0x0000000000004776      0x116 .build/obj_atelier6k_default/quantum/mousekey.o
                                        0x5fc (size before relaxing)
 .debug_str     0x000000000000488c       0x71 .build/obj_atelier6k_default/quantum/color.o
                                        0x21e (size before relaxing)
 .debug_str     0x00000000000048fd      0xeef .build/obj_atelier6k_default/quantum/rgblight/rgblight.o
                                       0x144a (size before relaxing)
 .debug_str     0x00000000000057ec       0x6f .build/obj_atelier6k_default/quantum/process_keycode/process_rgb.o
                                       0x2a74 (size before relaxing)
 .debug_str     0x000000000000585b      0x163 .build/obj_atelier6k_default/quantum/backlight/backlight.o
                                        0xa6e (size before relaxing)
 .debug_str     0x00000000000059be       0x2c .build/obj_atelier6k_default/quantum/process_keycode/process_backlight.o
                                       0x1f40 (size before relaxing)
 .debug_str     0x00000000000059ea       0x8e .build/obj_atelier6k_default/quantum/backlight/backlight_driver_common.o
                                        0x8f8 (size before relaxing)
 .debug_str     0x0000000000005a78       0x62 .build/obj_atelier6k_default/quantum/backlight/backlight_avr.o
                                        0x946 (size before relaxing)
 .debug_str     0x0000000000005ada       0x74 .build/obj_atelier6k_default/ws2812.o
                                        0x25d (size before relaxing)
 .debug_str     0x0000000000005b4e       0x15 .build/obj_atelier6k_default/quantum/led_tables.o
                                        0x19e (size before relaxing)
 .debug_str     0x0000000000005b63      0x50c .build/obj_atelier6k_default/quantum/via.o
                                       0x1160 (size before relaxing)
 .debug_str     0x000000000000606f       0x28 .build/obj_atelier6k_default/quantum/process_keycode/process_magic.o
                                       0x1f38 (size before relaxing)
 .debug_str     0x0000000000006097       0x60 .build/obj_atelier6k_default/quantum/dynamic_keymap.o
                                       0x116d (size before relaxing)
 .debug_str     0x00000000000060f7       0x42 .build/obj_atelier6k_default/quantum/process_keycode/process_grave_esc.o
                                       0x25f7 (size before relaxing)
 .debug_str     0x0000000000006139       0x6d .build/obj_atelier6k_default/quantum/process_keycode/process_space_cadet.o
                                       0x262e (size before relaxing)
 .debug_str     0x00000000000061a6       0x31 .build/obj_atelier6k_default/platforms/avr/printf.o
                                        0x1cb (size before relaxing)
 .debug_str     0x00000000000061d7      0x21d .build/obj_atelier6k_default/protocol/host.o
                                        0xba5 (size before relaxing)
 .debug_str     0x00000000000063f4       0x7d .build/obj_atelier6k_default/protocol/report.o
                                        0xbed (size before relaxing)
 .debug_str     0x0000000000006471      0x1ad .build/obj_atelier6k_default/protocol/usb_device_state.o
                                        0x32e (size before relaxing)
 .debug_str     0x000000000000661e       0x80 .build/obj_atelier6k_default/platforms/suspend.o
                                        0x249 (size before relaxing)
 .debug_str     0x000000000000669e       0x26 .build/obj_atelier6k_default/platforms/avr/platform.o
                                        0x1b0 (size before relaxing)
 .debug_str     0x00000000000066c4      0x119 .build/obj_atelier6k_default/platforms/avr/suspend.o
                                        0x524 (size before relaxing)
 .debug_str     0x00000000000067dd       0x43 .build/obj_atelier6k_default/platforms/avr/timer.o
                                        0x240 (size before relaxing)
 .debug_str     0x0000000000006820       0x5a .build/obj_atelier6k_default/platforms/avr/bootloaders/dfu.o
                                        0x249 (size before relaxing)
 .debug_str     0x000000000000687a      0x602 .build/obj_atelier6k_default/lufa.o
                                       0x12e6 (size before relaxing)
 .debug_str     0x0000000000006e7c      0x6e8 .build/obj_atelier6k_default/usb_descriptor.o
                                        0xb63 (size before relaxing)
 .debug_str     0x0000000000007564       0x5e .build/obj_atelier6k_default/lib/lufa/LUFA/Drivers/USB/Core/AVR8/Device_AVR8.o
                                        0x2d9 (size before relaxing)
 .debug_str     0x00000000000075c2      0x48b .build/obj_atelier6k_default/lib/lufa/LUFA/Drivers/USB/Core/AVR8/EndpointStream_AVR8.o
                                        0x8cd (size before relaxing)
 .debug_str     0x0000000000007a4d      0x236 .build/obj_atelier6k_default/lib/lufa/LUFA/Drivers/USB/Core/AVR8/Endpoint_AVR8.o
                                        0x68d (size before relaxing)
 .debug_str     0x0000000000007c83      0x181 .build/obj_atelier6k_default/lib/lufa/LUFA/Drivers/USB/Core/AVR8/USBController_AVR8.o
                                        0x5b1 (size before relaxing)
 .debug_str     0x0000000000007e04      0x12a .build/obj_atelier6k_default/lib/lufa/LUFA/Drivers/USB/Core/AVR8/USBInterrupt_AVR8.o
                                        0x681 (size before relaxing)
 .debug_str     0x0000000000007f2e      0x40d .build/obj_atelier6k_default/lib/lufa/LUFA/Drivers/USB/Core/DeviceStandardReq.o
                                        0x9be (size before relaxing)
 .debug_str     0x000000000000833b       0x59 .build/obj_atelier6k_default/lib/lufa/LUFA/Drivers/USB/Core/Events.o
                                        0x1d4 (size before relaxing)
 .debug_str     0x0000000000008394       0x45 .build/obj_atelier6k_default/lib/lufa/LUFA/Drivers/USB/Core/USBTask.o
                                        0x3e0 (size before relaxing)

.debug_loc      0x0000000000000000     0xf3a9
 *(.debug_loc)
 .debug_loc     0x0000000000000000       0x2a .build/obj_atelier6k_default/keyboards/atelier6k/keymaps/default/keymap.o
 .debug_loc     0x000000000000002a      0xbe4 .build/obj_atelier6k_default/quantum/quantum.o
 .debug_loc     0x0000000000000c0e      0xdd7 .build/obj_atelier6k_default/quantum/send_string.o
 .debug_loc     0x00000000000019e5       0xcd .build/obj_atelier6k_default/quantum/led.o
 .debug_loc     0x0000000000001ab2      0xa34 .build/obj_atelier6k_default/quantum/action.o
 .debug_loc     0x00000000000024e6      0x838 .build/obj_atelier6k_default/quantum/action_layer.o
 .debug_loc     0x0000000000002d1e      0x5a6 .build/obj_atelier6k_default/quantum/action_tapping.o
 .debug_loc     0x00000000000032c4      0x32d .build/obj_atelier6k_default/quantum/action_util.o
 .debug_loc     0x00000000000035f1      0x266 .build/obj_atelier6k_default/quantum/eeconfig.o
 .debug_loc     0x0000000000003857      0x168 .build/obj_atelier6k_default/quantum/keyboard.o
 .debug_loc     0x00000000000039bf      0x6a7 .build/obj_atelier6k_default/quantum/keymap_common.o
 .debug_loc     0x0000000000004066      0x203 .build/obj_atelier6k_default/quantum/keycode_config.o
 .debug_loc     0x0000000000004269       0x25 .build/obj_atelier6k_default/quantum/logging/sendchar.o
 .debug_loc     0x000000000000428e       0x4e .build/obj_atelier6k_default/quantum/bootmagic/bootmagic_lite.o
 .debug_loc     0x00000000000042dc       0x15 .build/obj_atelier6k_default/quantum/bootmagic/magic.o
 .debug_loc     0x00000000000042f1      0x1ea .build/obj_atelier6k_default/quantum/matrix_common.o
 .debug_loc     0x00000000000044db      0x4ac .build/obj_atelier6k_default/quantum/matrix.o
 .debug_loc     0x0000000000004987      0x16f .build/obj_atelier6k_default/quantum/debounce/sym_defer_g.o
 .debug_loc     0x0000000000004af6      0x399 .build/obj_atelier6k_default/quantum/mousekey.o
 .debug_loc     0x0000000000004e8f      0x250 .build/obj_atelier6k_default/quantum/color.o
 .debug_loc     0x00000000000050df     0x27dc .build/obj_atelier6k_default/quantum/rgblight/rgblight.o
 .debug_loc     0x00000000000078bb      0x230 .build/obj_atelier6k_default/quantum/process_keycode/process_rgb.o
 .debug_loc     0x0000000000007aeb       0x9f .build/obj_atelier6k_default/quantum/backlight/backlight.o
 .debug_loc     0x0000000000007b8a      0x19a .build/obj_atelier6k_default/quantum/process_keycode/process_backlight.o
 .debug_loc     0x0000000000007d24       0x45 .build/obj_atelier6k_default/quantum/backlight/backlight_driver_common.o
 .debug_loc     0x0000000000007d69      0x27a .build/obj_atelier6k_default/quantum/backlight/backlight_avr.o
 .debug_loc     0x0000000000007fe3      0x1f4 .build/obj_atelier6k_default/ws2812.o
 .debug_loc     0x00000000000081d7     0x13e0 .build/obj_atelier6k_default/quantum/via.o
 .debug_loc     0x00000000000095b7       0xdb .build/obj_atelier6k_default/quantum/process_keycode/process_magic.o
 .debug_loc     0x0000000000009692      0xc8c .build/obj_atelier6k_default/quantum/dynamic_keymap.o
 .debug_loc     0x000000000000a31e      0x143 .build/obj_atelier6k_default/quantum/process_keycode/process_grave_esc.o
 .debug_loc     0x000000000000a461      0x469 .build/obj_atelier6k_default/quantum/process_keycode/process_space_cadet.o
 .debug_loc     0x000000000000a8ca      0x154 .build/obj_atelier6k_default/protocol/host.o
 .debug_loc     0x000000000000aa1e      0x564 .build/obj_atelier6k_default/protocol/report.o
 .debug_loc     0x000000000000af82      0x124 .build/obj_atelier6k_default/protocol/usb_device_state.o
 .debug_loc     0x000000000000b0a6       0x52 .build/obj_atelier6k_default/platforms/suspend.o
 .debug_loc     0x000000000000b0f8       0x52 .build/obj_atelier6k_default/platforms/avr/suspend.o
 .debug_loc     0x000000000000b14a      0x2c0 .build/obj_atelier6k_default/platforms/avr/timer.o
 .debug_loc     0x000000000000b40a       0x4e .build/obj_atelier6k_default/platforms/avr/bootloaders/dfu.o
 .debug_loc     0x000000000000b458      0x6f2 .build/obj_atelier6k_default/lufa.o
 .debug_loc     0x000000000000bb4a      0x30f .build/obj_atelier6k_default/usb_descriptor.o
 .debug_loc     0x000000000000be59     0x272e .build/obj_atelier6k_default/lib/lufa/LUFA/Drivers/USB/Core/AVR8/EndpointStream_AVR8.o
 .debug_loc     0x000000000000e587      0x4a0 .build/obj_atelier6k_default/lib/lufa/LUFA/Drivers/USB/Core/AVR8/Endpoint_AVR8.o
 .debug_loc     0x000000000000ea27       0xf9 .build/obj_atelier6k_default/lib/lufa/LUFA/Drivers/USB/Core/AVR8/USBController_AVR8.o
 .debug_loc     0x000000000000eb20      0x492 .build/obj_atelier6k_default/lib/lufa/LUFA/Drivers/USB/Core/AVR8/USBInterrupt_AVR8.o
 .debug_loc     0x000000000000efb2      0x395 .build/obj_atelier6k_default/lib/lufa/LUFA/Drivers/USB/Core/DeviceStandardReq.o
 .debug_loc     0x000000000000f347       0x62 .build/obj_atelier6k_default/lib/lufa/LUFA/Drivers/USB/Core/USBTask.o

.debug_macinfo
 *(.debug_macinfo)

.debug_weaknames
 *(.debug_weaknames)

.debug_funcnames
 *(.debug_funcnames)

.debug_typenames
 *(.debug_typenames)

.debug_varnames
 *(.debug_varnames)

.debug_pubtypes
 *(.debug_pubtypes)

.debug_ranges   0x0000000000000000     0x1dd0
 *(.debug_ranges)
 .debug_ranges  0x0000000000000000       0x18 .build/obj_atelier6k_default/keyboards/atelier6k/keymaps/default/keymap.o
 .debug_ranges  0x0000000000000018      0x138 .build/obj_atelier6k_default/quantum/quantum.o
 .debug_ranges  0x0000000000000150       0xd0 .build/obj_atelier6k_default/quantum/send_string.o
 .debug_ranges  0x0000000000000220       0x50 .build/obj_atelier6k_default/quantum/led.o
 .debug_ranges  0x0000000000000270      0x150 .build/obj_atelier6k_default/quantum/action.o
 .debug_ranges  0x00000000000003c0      0x140 .build/obj_atelier6k_default/quantum/action_layer.o
 .debug_ranges  0x0000000000000500       0xc8 .build/obj_atelier6k_default/quantum/action_tapping.o
 .debug_ranges  0x00000000000005c8      0x140 .build/obj_atelier6k_default/quantum/action_util.o
 .debug_ranges  0x0000000000000708       0xc8 .build/obj_atelier6k_default/quantum/eeconfig.o
 .debug_ranges  0x00000000000007d0       0xe8 .build/obj_atelier6k_default/quantum/keyboard.o
 .debug_ranges  0x00000000000008b8       0x20 .build/obj_atelier6k_default/quantum/keymap_common.o
 .debug_ranges  0x00000000000008d8       0x18 .build/obj_atelier6k_default/quantum/keycode_config.o
 .debug_ranges  0x00000000000008f0       0x10 .build/obj_atelier6k_default/quantum/logging/sendchar.o
 .debug_ranges  0x0000000000000900       0x20 .build/obj_atelier6k_default/quantum/bootmagic/bootmagic_lite.o
 .debug_ranges  0x0000000000000920       0x18 .build/obj_atelier6k_default/quantum/bootmagic/magic.o
 .debug_ranges  0x0000000000000938       0x78 .build/obj_atelier6k_default/quantum/matrix_common.o
 .debug_ranges  0x00000000000009b0       0xe8 .build/obj_atelier6k_default/quantum/matrix.o
 .debug_ranges  0x0000000000000a98       0x38 .build/obj_atelier6k_default/quantum/debounce/sym_defer_g.o
 .debug_ranges  0x0000000000000ad0       0x20 .build/obj_atelier6k_default/quantum/main.o
 .debug_ranges  0x0000000000000af0       0x48 .build/obj_atelier6k_default/quantum/mousekey.o
 .debug_ranges  0x0000000000000b38       0x28 .build/obj_atelier6k_default/quantum/color.o
 .debug_ranges  0x0000000000000b60      0x5f0 .build/obj_atelier6k_default/quantum/rgblight/rgblight.o
 .debug_ranges  0x0000000000001150       0x40 .build/obj_atelier6k_default/quantum/process_keycode/process_rgb.o
 .debug_ranges  0x0000000000001190       0x90 .build/obj_atelier6k_default/quantum/backlight/backlight.o
 .debug_ranges  0x0000000000001220       0x10 .build/obj_atelier6k_default/quantum/process_keycode/process_backlight.o
 .debug_ranges  0x0000000000001230       0x20 .build/obj_atelier6k_default/quantum/backlight/backlight_driver_common.o
 .debug_ranges  0x0000000000001250       0x48 .build/obj_atelier6k_default/quantum/backlight/backlight_avr.o
 .debug_ranges  0x0000000000001298       0x30 .build/obj_atelier6k_default/ws2812.o
 .debug_ranges  0x00000000000012c8       0xb8 .build/obj_atelier6k_default/quantum/via.o
 .debug_ranges  0x0000000000001380       0x10 .build/obj_atelier6k_default/quantum/process_keycode/process_magic.o
 .debug_ranges  0x0000000000001390      0x130 .build/obj_atelier6k_default/quantum/dynamic_keymap.o
 .debug_ranges  0x00000000000014c0       0x28 .build/obj_atelier6k_default/quantum/process_keycode/process_grave_esc.o
 .debug_ranges  0x00000000000014e8       0x18 .build/obj_atelier6k_default/quantum/process_keycode/process_space_cadet.o
 .debug_ranges  0x0000000000001500       0x10 .build/obj_atelier6k_default/platforms/avr/printf.o
 .debug_ranges  0x0000000000001510       0x78 .build/obj_atelier6k_default/protocol/host.o
 .debug_ranges  0x0000000000001588       0x60 .build/obj_atelier6k_default/protocol/report.o
 .debug_ranges  0x00000000000015e8       0x30 .build/obj_atelier6k_default/protocol/usb_device_state.o
 .debug_ranges  0x0000000000001618       0x40 .build/obj_atelier6k_default/platforms/suspend.o
 .debug_ranges  0x0000000000001658       0x10 .build/obj_atelier6k_default/platforms/avr/platform.o
 .debug_ranges  0x0000000000001668       0x50 .build/obj_atelier6k_default/platforms/avr/suspend.o
 .debug_ranges  0x00000000000016b8       0x40 .build/obj_atelier6k_default/platforms/avr/timer.o
 .debug_ranges  0x00000000000016f8       0x20 .build/obj_atelier6k_default/platforms/avr/bootloaders/dfu.o
 .debug_ranges  0x0000000000001718      0x1d0 .build/obj_atelier6k_default/lufa.o
 .debug_ranges  0x00000000000018e8       0x28 .build/obj_atelier6k_default/usb_descriptor.o
 .debug_ranges  0x0000000000001910       0x10 .build/obj_atelier6k_default/lib/lufa/LUFA/Drivers/USB/Core/AVR8/Device_AVR8.o
 .debug_ranges  0x0000000000001920      0x1f8 .build/obj_atelier6k_default/lib/lufa/LUFA/Drivers/USB/Core/AVR8/EndpointStream_AVR8.o
 .debug_ranges  0x0000000000001b18       0xd8 .build/obj_atelier6k_default/lib/lufa/LUFA/Drivers/USB/Core/AVR8/Endpoint_AVR8.o
 .debug_ranges  0x0000000000001bf0       0x50 .build/obj_atelier6k_default/lib/lufa/LUFA/Drivers/USB/Core/AVR8/USBController_AVR8.o
 .debug_ranges  0x0000000000001c40       0x70 .build/obj_atelier6k_default/lib/lufa/LUFA/Drivers/USB/Core/AVR8/USBInterrupt_AVR8.o
 .debug_ranges  0x0000000000001cb0       0xf0 .build/obj_atelier6k_default/lib/lufa/LUFA/Drivers/USB/Core/DeviceStandardReq.o
 .debug_ranges  0x0000000000001da0       0x20 .build/obj_atelier6k_default/lib/lufa/LUFA/Drivers/USB/Core/Events.o
 .debug_ranges  0x0000000000001dc0       0x10 .build/obj_atelier6k_default/lib/lufa/LUFA/Drivers/USB/Core/USBTask.o

.debug_macro
 *(.debug_macro)

.debug_addr
 *(.debug_addr)
OUTPUT(.build/atelier6k_default.elf elf32-avr)
LOAD linker stubs

Cross Reference Table

Symbol                                            File
CALLBACK_HIDParser_FilterHIDReportItem            .build/obj_atelier6k_default/lib/lufa/LUFA/Drivers/USB/Class/Common/HIDParser.o
CALLBACK_USB_GetDescriptor                        .build/obj_atelier6k_default/lufa.o
                                                  .build/obj_atelier6k_default/lib/lufa/LUFA/Drivers/USB/Core/DeviceStandardReq.o
CIE1931_CURVE                                     .build/obj_atelier6k_default/quantum/led_tables.o
                                                  .build/obj_atelier6k_default/quantum/color.o
ConfigurationDescriptor                           .build/obj_atelier6k_default/usb_descriptor.o
DeviceDescriptor                                  .build/obj_atelier6k_default/usb_descriptor.o
EVENT_USB_Device_ConfigurationChanged             .build/obj_atelier6k_default/lufa.o
                                                  .build/obj_atelier6k_default/lib/lufa/LUFA/Drivers/USB/Core/DeviceStandardReq.o
EVENT_USB_Device_Connect                          .build/obj_atelier6k_default/lufa.o
                                                  .build/obj_atelier6k_default/lib/lufa/LUFA/Drivers/USB/Core/AVR8/USBInterrupt_AVR8.o
EVENT_USB_Device_ControlRequest                   .build/obj_atelier6k_default/lufa.o
                                                  .build/obj_atelier6k_default/lib/lufa/LUFA/Drivers/USB/Core/DeviceStandardReq.o
EVENT_USB_Device_Disconnect                       .build/obj_atelier6k_default/lufa.o
                                                  .build/obj_atelier6k_default/lib/lufa/LUFA/Drivers/USB/Core/AVR8/USBInterrupt_AVR8.o
EVENT_USB_Device_Reset                            .build/obj_atelier6k_default/lufa.o
                                                  .build/obj_atelier6k_default/lib/lufa/LUFA/Drivers/USB/Core/AVR8/USBInterrupt_AVR8.o
EVENT_USB_Device_StartOfFrame                     .build/obj_atelier6k_default/lib/lufa/LUFA/Drivers/USB/Core/Events.o
                                                  .build/obj_atelier6k_default/lib/lufa/LUFA/Drivers/USB/Core/AVR8/USBInterrupt_AVR8.o
EVENT_USB_Device_Suspend                          .build/obj_atelier6k_default/lufa.o
                                                  .build/obj_atelier6k_default/lib/lufa/LUFA/Drivers/USB/Core/AVR8/USBInterrupt_AVR8.o
EVENT_USB_Device_WakeUp                           .build/obj_atelier6k_default/lufa.o
                                                  .build/obj_atelier6k_default/lib/lufa/LUFA/Drivers/USB/Core/AVR8/USBInterrupt_AVR8.o
Endpoint_ClearEndpoints                           .build/obj_atelier6k_default/lib/lufa/LUFA/Drivers/USB/Core/AVR8/Endpoint_AVR8.o
Endpoint_ClearStatusStage                         .build/obj_atelier6k_default/lib/lufa/LUFA/Drivers/USB/Core/AVR8/Endpoint_AVR8.o
                                                  .build/obj_atelier6k_default/lib/lufa/LUFA/Drivers/USB/Core/DeviceStandardReq.o
                                                  .build/obj_atelier6k_default/lufa.o
Endpoint_ConfigureEndpointTable                   .build/obj_atelier6k_default/lib/lufa/LUFA/Drivers/USB/Core/AVR8/Endpoint_AVR8.o
Endpoint_ConfigureEndpoint_Prv                    .build/obj_atelier6k_default/lib/lufa/LUFA/Drivers/USB/Core/AVR8/Endpoint_AVR8.o
                                                  .build/obj_atelier6k_default/lib/lufa/LUFA/Drivers/USB/Core/AVR8/USBInterrupt_AVR8.o
                                                  .build/obj_atelier6k_default/lib/lufa/LUFA/Drivers/USB/Core/AVR8/USBController_AVR8.o
                                                  .build/obj_atelier6k_default/lufa.o
Endpoint_Discard_Stream                           .build/obj_atelier6k_default/lib/lufa/LUFA/Drivers/USB/Core/AVR8/EndpointStream_AVR8.o
Endpoint_Null_Stream                              .build/obj_atelier6k_default/lib/lufa/LUFA/Drivers/USB/Core/AVR8/EndpointStream_AVR8.o
Endpoint_Read_Control_EStream_BE                  .build/obj_atelier6k_default/lib/lufa/LUFA/Drivers/USB/Core/AVR8/EndpointStream_AVR8.o
Endpoint_Read_Control_EStream_LE                  .build/obj_atelier6k_default/lib/lufa/LUFA/Drivers/USB/Core/AVR8/EndpointStream_AVR8.o
Endpoint_Read_Control_Stream_BE                   .build/obj_atelier6k_default/lib/lufa/LUFA/Drivers/USB/Core/AVR8/EndpointStream_AVR8.o
Endpoint_Read_Control_Stream_LE                   .build/obj_atelier6k_default/lib/lufa/LUFA/Drivers/USB/Core/AVR8/EndpointStream_AVR8.o
Endpoint_Read_EStream_BE                          .build/obj_atelier6k_default/lib/lufa/LUFA/Drivers/USB/Core/AVR8/EndpointStream_AVR8.o
Endpoint_Read_EStream_LE                          .build/obj_atelier6k_default/lib/lufa/LUFA/Drivers/USB/Core/AVR8/EndpointStream_AVR8.o
Endpoint_Read_Stream_BE                           .build/obj_atelier6k_default/lib/lufa/LUFA/Drivers/USB/Core/AVR8/EndpointStream_AVR8.o
Endpoint_Read_Stream_LE                           .build/obj_atelier6k_default/lib/lufa/LUFA/Drivers/USB/Core/AVR8/EndpointStream_AVR8.o
                                                  .build/obj_atelier6k_default/lufa.o
Endpoint_WaitUntilReady                           .build/obj_atelier6k_default/lib/lufa/LUFA/Drivers/USB/Core/AVR8/Endpoint_AVR8.o
                                                  .build/obj_atelier6k_default/lib/lufa/LUFA/Drivers/USB/Core/AVR8/EndpointStream_AVR8.o
Endpoint_Write_Control_EStream_BE                 .build/obj_atelier6k_default/lib/lufa/LUFA/Drivers/USB/Core/AVR8/EndpointStream_AVR8.o
Endpoint_Write_Control_EStream_LE                 .build/obj_atelier6k_default/lib/lufa/LUFA/Drivers/USB/Core/AVR8/EndpointStream_AVR8.o
Endpoint_Write_Control_PStream_BE                 .build/obj_atelier6k_default/lib/lufa/LUFA/Drivers/USB/Core/AVR8/EndpointStream_AVR8.o
Endpoint_Write_Control_PStream_LE                 .build/obj_atelier6k_default/lib/lufa/LUFA/Drivers/USB/Core/AVR8/EndpointStream_AVR8.o
                                                  .build/obj_atelier6k_default/lib/lufa/LUFA/Drivers/USB/Core/DeviceStandardReq.o
Endpoint_Write_Control_Stream_BE                  .build/obj_atelier6k_default/lib/lufa/LUFA/Drivers/USB/Core/AVR8/EndpointStream_AVR8.o
Endpoint_Write_Control_Stream_LE                  .build/obj_atelier6k_default/lib/lufa/LUFA/Drivers/USB/Core/AVR8/EndpointStream_AVR8.o
                                                  .build/obj_atelier6k_default/lib/lufa/LUFA/Drivers/USB/Core/DeviceStandardReq.o
                                                  .build/obj_atelier6k_default/lufa.o
Endpoint_Write_EStream_BE                         .build/obj_atelier6k_default/lib/lufa/LUFA/Drivers/USB/Core/AVR8/EndpointStream_AVR8.o
Endpoint_Write_EStream_LE                         .build/obj_atelier6k_default/lib/lufa/LUFA/Drivers/USB/Core/AVR8/EndpointStream_AVR8.o
Endpoint_Write_PStream_BE                         .build/obj_atelier6k_default/lib/lufa/LUFA/Drivers/USB/Core/AVR8/EndpointStream_AVR8.o
Endpoint_Write_PStream_LE                         .build/obj_atelier6k_default/lib/lufa/LUFA/Drivers/USB/Core/AVR8/EndpointStream_AVR8.o
Endpoint_Write_Stream_BE                          .build/obj_atelier6k_default/lib/lufa/LUFA/Drivers/USB/Core/AVR8/EndpointStream_AVR8.o
Endpoint_Write_Stream_LE                          .build/obj_atelier6k_default/lib/lufa/LUFA/Drivers/USB/Core/AVR8/EndpointStream_AVR8.o
                                                  .build/obj_atelier6k_default/lufa.o
KeyboardReport                                    .build/obj_atelier6k_default/usb_descriptor.o
LanguageString                                    .build/obj_atelier6k_default/usb_descriptor.o
ManufacturerString                                .build/obj_atelier6k_default/usb_descriptor.o
ProductString                                     .build/obj_atelier6k_default/usb_descriptor.o
RGBLED_BREATHING_INTERVALS                        .build/obj_atelier6k_default/quantum/rgblight/rgblight.o
RGBLED_GRADIENT_RANGES                            .build/obj_atelier6k_default/quantum/rgblight/rgblight.o
RGBLED_KNIGHT_INTERVALS                           .build/obj_atelier6k_default/quantum/rgblight/rgblight.o
RGBLED_RAINBOW_MOOD_INTERVALS                     .build/obj_atelier6k_default/quantum/rgblight/rgblight.o
RGBLED_RAINBOW_SWIRL_INTERVALS                    .build/obj_atelier6k_default/quantum/rgblight/rgblight.o
RGBLED_RGBTEST_INTERVALS                          .build/obj_atelier6k_default/quantum/rgblight/rgblight.o
RGBLED_SNAKE_INTERVALS                            .build/obj_atelier6k_default/quantum/rgblight/rgblight.o
RawReport                                         .build/obj_atelier6k_default/usb_descriptor.o
SharedReport                                      .build/obj_atelier6k_default/usb_descriptor.o
USB_ControlRequest                                .build/obj_atelier6k_default/lib/lufa/LUFA/Drivers/USB/Core/USBTask.o
                                                  .build/obj_atelier6k_default/lib/lufa/LUFA/Drivers/USB/Core/DeviceStandardReq.o
                                                  .build/obj_atelier6k_default/lib/lufa/LUFA/Drivers/USB/Core/AVR8/Endpoint_AVR8.o
                                                  .build/obj_atelier6k_default/lib/lufa/LUFA/Drivers/USB/Core/AVR8/EndpointStream_AVR8.o
                                                  .build/obj_atelier6k_default/lufa.o
USB_DeviceState                                   .build/obj_atelier6k_default/lib/lufa/LUFA/Drivers/USB/Core/USBTask.o
                                                  .build/obj_atelier6k_default/protocol/lufa/usb_util.o
                                                  .build/obj_atelier6k_default/lib/lufa/LUFA/Drivers/USB/Core/DeviceStandardReq.o
                                                  .build/obj_atelier6k_default/lib/lufa/LUFA/Drivers/USB/Core/AVR8/USBInterrupt_AVR8.o
                                                  .build/obj_atelier6k_default/lib/lufa/LUFA/Drivers/USB/Core/AVR8/USBController_AVR8.o
                                                  .build/obj_atelier6k_default/lib/lufa/LUFA/Drivers/USB/Core/AVR8/Endpoint_AVR8.o
                                                  .build/obj_atelier6k_default/lib/lufa/LUFA/Drivers/USB/Core/AVR8/EndpointStream_AVR8.o
                                                  .build/obj_atelier6k_default/lufa.o
                                                  .build/obj_atelier6k_default/platforms/avr/suspend.o
USB_Device_ConfigurationNumber                    .build/obj_atelier6k_default/lib/lufa/LUFA/Drivers/USB/Core/DeviceStandardReq.o
                                                  .build/obj_atelier6k_default/lib/lufa/LUFA/Drivers/USB/Core/AVR8/USBInterrupt_AVR8.o
                                                  .build/obj_atelier6k_default/lib/lufa/LUFA/Drivers/USB/Core/AVR8/USBController_AVR8.o
                                                  .build/obj_atelier6k_default/lufa.o
USB_Device_CurrentlySelfPowered                   .build/obj_atelier6k_default/lib/lufa/LUFA/Drivers/USB/Core/DeviceStandardReq.o
                                                  .build/obj_atelier6k_default/lib/lufa/LUFA/Drivers/USB/Core/AVR8/USBController_AVR8.o
USB_Device_ProcessControlRequest                  .build/obj_atelier6k_default/lib/lufa/LUFA/Drivers/USB/Core/DeviceStandardReq.o
                                                  .build/obj_atelier6k_default/lib/lufa/LUFA/Drivers/USB/Core/USBTask.o
                                                  .build/obj_atelier6k_default/lib/lufa/LUFA/Drivers/USB/Core/AVR8/USBInterrupt_AVR8.o
USB_Device_RemoteWakeupEnabled                    .build/obj_atelier6k_default/lib/lufa/LUFA/Drivers/USB/Core/DeviceStandardReq.o
                                                  .build/obj_atelier6k_default/lib/lufa/LUFA/Drivers/USB/Core/AVR8/USBController_AVR8.o
                                                  .build/obj_atelier6k_default/lufa.o
USB_Device_SendRemoteWakeup                       .build/obj_atelier6k_default/lib/lufa/LUFA/Drivers/USB/Core/AVR8/Device_AVR8.o
                                                  .build/obj_atelier6k_default/lufa.o
USB_Disable                                       .build/obj_atelier6k_default/lib/lufa/LUFA/Drivers/USB/Core/AVR8/USBController_AVR8.o
                                                  .build/obj_atelier6k_default/protocol/lufa/usb_util.o
                                                  .build/obj_atelier6k_default/lufa.o
USB_Event_Stub                                    .build/obj_atelier6k_default/lib/lufa/LUFA/Drivers/USB/Core/Events.o
USB_Event_Stub_2                                  .build/obj_atelier6k_default/lib/lufa/LUFA/Drivers/USB/Core/Events.o
USB_Event_Stub_3                                  .build/obj_atelier6k_default/lib/lufa/LUFA/Drivers/USB/Core/Events.o
USB_GetHIDReportItemInfo                          .build/obj_atelier6k_default/lib/lufa/LUFA/Drivers/USB/Class/Common/HIDParser.o
USB_GetHIDReportSize                              .build/obj_atelier6k_default/lib/lufa/LUFA/Drivers/USB/Class/Common/HIDParser.o
USB_GetNextDescriptorComp                         .build/obj_atelier6k_default/lib/lufa/LUFA/Drivers/USB/Core/ConfigDescriptors.o
USB_GetNextDescriptorOfType                       .build/obj_atelier6k_default/lib/lufa/LUFA/Drivers/USB/Core/ConfigDescriptors.o
USB_GetNextDescriptorOfTypeAfter                  .build/obj_atelier6k_default/lib/lufa/LUFA/Drivers/USB/Core/ConfigDescriptors.o
USB_GetNextDescriptorOfTypeBefore                 .build/obj_atelier6k_default/lib/lufa/LUFA/Drivers/USB/Core/ConfigDescriptors.o
USB_INT_ClearAllInterrupts                        .build/obj_atelier6k_default/lib/lufa/LUFA/Drivers/USB/Core/AVR8/USBInterrupt_AVR8.o
                                                  .build/obj_atelier6k_default/lib/lufa/LUFA/Drivers/USB/Core/AVR8/USBController_AVR8.o
USB_INT_DisableAllInterrupts                      .build/obj_atelier6k_default/lib/lufa/LUFA/Drivers/USB/Core/AVR8/USBInterrupt_AVR8.o
                                                  .build/obj_atelier6k_default/lib/lufa/LUFA/Drivers/USB/Core/AVR8/USBController_AVR8.o
USB_Init                                          .build/obj_atelier6k_default/lib/lufa/LUFA/Drivers/USB/Core/AVR8/USBController_AVR8.o
                                                  .build/obj_atelier6k_default/lufa.o
USB_IsInitialized                                 .build/obj_atelier6k_default/lib/lufa/LUFA/Drivers/USB/Core/USBTask.o
                                                  .build/obj_atelier6k_default/lib/lufa/LUFA/Drivers/USB/Core/AVR8/USBController_AVR8.o
                                                  .build/obj_atelier6k_default/lufa.o
USB_ProcessHIDReport                              .build/obj_atelier6k_default/lib/lufa/LUFA/Drivers/USB/Class/Common/HIDParser.o
USB_ResetInterface                                .build/obj_atelier6k_default/lib/lufa/LUFA/Drivers/USB/Core/AVR8/USBController_AVR8.o
USB_SetHIDReportItemInfo                          .build/obj_atelier6k_default/lib/lufa/LUFA/Drivers/USB/Class/Common/HIDParser.o
USB_USBTask                                       .build/obj_atelier6k_default/lib/lufa/LUFA/Drivers/USB/Core/USBTask.o
                                                  .build/obj_atelier6k_default/lufa.o
__bad_interrupt                                   e:/qmk_msys/mingw64/bin/../lib/gcc/avr/8.4.0/../../../../avr/lib/avr5/crtatmega32u4.o
__bss_end                                         e:/qmk_msys/mingw64/bin/../lib/gcc/avr/8.4.0/avr5\libgcc.a(_clear_bss.o)
__bss_start                                       e:/qmk_msys/mingw64/bin/../lib/gcc/avr/8.4.0/avr5\libgcc.a(_clear_bss.o)
__bswapsi2                                        e:/qmk_msys/mingw64/bin/../lib/gcc/avr/8.4.0/avr5\libgcc.a(_bswapsi2.o)
                                                  .build/obj_atelier6k_default/quantum/via.o
__data_end                                        e:/qmk_msys/mingw64/bin/../lib/gcc/avr/8.4.0/avr5\libgcc.a(_copy_data.o)
__data_load_start                                 e:/qmk_msys/mingw64/bin/../lib/gcc/avr/8.4.0/avr5\libgcc.a(_copy_data.o)
__data_start                                      e:/qmk_msys/mingw64/bin/../lib/gcc/avr/8.4.0/avr5\libgcc.a(_copy_data.o)
__divmodhi4                                       e:/qmk_msys/mingw64/bin/../lib/gcc/avr/8.4.0/avr5\libgcc.a(_divmodhi4.o)
                                                  .build/obj_atelier6k_default/quantum/rgblight/rgblight.o
                                                  .build/obj_atelier6k_default/quantum/mousekey.o
__divmodqi4                                       e:/qmk_msys/mingw64/bin/../lib/gcc/avr/8.4.0/avr5\libgcc.a(_divmodqi4.o)
                                                  .build/obj_atelier6k_default/quantum/rgblight/rgblight.o
__do_clear_bss                                    e:/qmk_msys/mingw64/bin/../lib/gcc/avr/8.4.0/avr5\libgcc.a(_clear_bss.o)
                                                  .build/obj_atelier6k_default/lib/lufa/LUFA/Drivers/USB/Core/USBTask.o
                                                  .build/obj_atelier6k_default/lib/lufa/LUFA/Drivers/USB/Core/DeviceStandardReq.o
                                                  .build/obj_atelier6k_default/lufa.o
                                                  .build/obj_atelier6k_default/platforms/avr/timer.o
                                                  .build/obj_atelier6k_default/platforms/avr/suspend.o
                                                  .build/obj_atelier6k_default/protocol/usb_device_state.o
                                                  .build/obj_atelier6k_default/protocol/host.o
                                                  .build/obj_atelier6k_default/quantum/process_keycode/process_space_cadet.o
                                                  .build/obj_atelier6k_default/quantum/process_keycode/process_grave_esc.o
                                                  .build/obj_atelier6k_default/quantum/backlight/backlight.o
                                                  .build/obj_atelier6k_default/quantum/rgblight/rgblight.o
                                                  .build/obj_atelier6k_default/quantum/mousekey.o
                                                  .build/obj_atelier6k_default/quantum/debounce/sym_defer_g.o
                                                  .build/obj_atelier6k_default/quantum/matrix_common.o
                                                  .build/obj_atelier6k_default/quantum/bootmagic/magic.o
                                                  .build/obj_atelier6k_default/quantum/logging/debug.o
                                                  .build/obj_atelier6k_default/quantum/keyboard.o
                                                  .build/obj_atelier6k_default/quantum/action_util.o
                                                  .build/obj_atelier6k_default/quantum/action_tapping.o
                                                  .build/obj_atelier6k_default/quantum/action_layer.o
                                                  .build/obj_atelier6k_default/quantum/action.o
                                                  .build/obj_atelier6k_default/quantum/led.o
                                                  .build/obj_atelier6k_default/quantum/quantum.o
__do_copy_data                                    e:/qmk_msys/mingw64/bin/../lib/gcc/avr/8.4.0/avr5\libgcc.a(_copy_data.o)
                                                  .build/obj_atelier6k_default/usb_descriptor.o
                                                  .build/obj_atelier6k_default/lufa.o
                                                  .build/obj_atelier6k_default/quantum/rgblight/rgblight.o
                                                  .build/obj_atelier6k_default/quantum/mousekey.o
                                                  .build/obj_atelier6k_default/quantum/matrix.o
                                                  .build/obj_atelier6k_default/quantum/action_util.o
                                                  .build/obj_atelier6k_default/quantum/quantum.o
__epilogue_restores__                             e:/qmk_msys/mingw64/bin/../lib/gcc/avr/8.4.0/avr5\libgcc.a(_epilogue.o)
                                                  .build/obj_atelier6k_default/lib/lufa/LUFA/Drivers/USB/Core/DeviceStandardReq.o
                                                  .build/obj_atelier6k_default/lib/lufa/LUFA/Drivers/USB/Core/ConfigDescriptors.o
                                                  .build/obj_atelier6k_default/lib/lufa/LUFA/Drivers/USB/Core/AVR8/EndpointStream_AVR8.o
                                                  .build/obj_atelier6k_default/lib/lufa/LUFA/Drivers/USB/Class/Common/HIDParser.o
                                                  .build/obj_atelier6k_default/lufa.o
                                                  .build/obj_atelier6k_default/platforms/avr/hardware_id.o
                                                  .build/obj_atelier6k_default/protocol/host.o
                                                  .build/obj_atelier6k_default/quantum/dynamic_keymap.o
                                                  .build/obj_atelier6k_default/quantum/via.o
                                                  .build/obj_atelier6k_default/quantum/backlight/backlight_avr.o
                                                  .build/obj_atelier6k_default/quantum/rgblight/rgblight.o
                                                  .build/obj_atelier6k_default/quantum/color.o
                                                  .build/obj_atelier6k_default/quantum/mousekey.o
                                                  .build/obj_atelier6k_default/quantum/debounce/sym_defer_g.o
                                                  .build/obj_atelier6k_default/quantum/matrix.o
                                                  .build/obj_atelier6k_default/quantum/keyboard.o
                                                  .build/obj_atelier6k_default/quantum/action_tapping.o
                                                  .build/obj_atelier6k_default/quantum/action.o
                                                  .build/obj_atelier6k_default/quantum/bitwise.o
                                                  .build/obj_atelier6k_default/quantum/send_string.o
                                                  .build/obj_atelier6k_default/quantum/quantum.o
__fixunssfsi                                      e:/qmk_msys/mingw64/bin/../lib/gcc/avr/8.4.0/../../../../avr/lib/avr5\libm.a(fixunssfsi.o)
                                                  .build/obj_atelier6k_default/protocol/host.o
__fp_inf                                          e:/qmk_msys/mingw64/bin/../lib/gcc/avr/8.4.0/../../../../avr/lib/avr5\libm.a(fp_inf.o)
                                                  e:/qmk_msys/mingw64/bin/../lib/gcc/avr/8.4.0/../../../../avr/lib/avr5\libm.a(mulsf3x.o)
__fp_nan                                          e:/qmk_msys/mingw64/bin/../lib/gcc/avr/8.4.0/../../../../avr/lib/avr5\libm.a(fp_nan.o)
                                                  e:/qmk_msys/mingw64/bin/../lib/gcc/avr/8.4.0/../../../../avr/lib/avr5\libm.a(mulsf3x.o)
__fp_pscA                                         e:/qmk_msys/mingw64/bin/../lib/gcc/avr/8.4.0/../../../../avr/lib/avr5\libm.a(fp_pscA.o)
                                                  e:/qmk_msys/mingw64/bin/../lib/gcc/avr/8.4.0/../../../../avr/lib/avr5\libm.a(mulsf3x.o)
__fp_pscB                                         e:/qmk_msys/mingw64/bin/../lib/gcc/avr/8.4.0/../../../../avr/lib/avr5\libm.a(fp_pscB.o)
                                                  e:/qmk_msys/mingw64/bin/../lib/gcc/avr/8.4.0/../../../../avr/lib/avr5\libm.a(mulsf3x.o)
__fp_round                                        e:/qmk_msys/mingw64/bin/../lib/gcc/avr/8.4.0/../../../../avr/lib/avr5\libm.a(fp_round.o)
                                                  e:/qmk_msys/mingw64/bin/../lib/gcc/avr/8.4.0/../../../../avr/lib/avr5\libm.a(mulsf3.o)
__fp_split3                                       e:/qmk_msys/mingw64/bin/../lib/gcc/avr/8.4.0/../../../../avr/lib/avr5\libm.a(fp_split3.o)
                                                  e:/qmk_msys/mingw64/bin/../lib/gcc/avr/8.4.0/../../../../avr/lib/avr5\libm.a(mulsf3x.o)
__fp_splitA                                       e:/qmk_msys/mingw64/bin/../lib/gcc/avr/8.4.0/../../../../avr/lib/avr5\libm.a(fp_split3.o)
                                                  e:/qmk_msys/mingw64/bin/../lib/gcc/avr/8.4.0/../../../../avr/lib/avr5\libm.a(fixunssfsi.o)
__fp_szero                                        e:/qmk_msys/mingw64/bin/../lib/gcc/avr/8.4.0/../../../../avr/lib/avr5\libm.a(fp_zero.o)
                                                  e:/qmk_msys/mingw64/bin/../lib/gcc/avr/8.4.0/../../../../avr/lib/avr5\libm.a(mulsf3x.o)
__fp_zero                                         e:/qmk_msys/mingw64/bin/../lib/gcc/avr/8.4.0/../../../../avr/lib/avr5\libm.a(fp_zero.o)
                                                  e:/qmk_msys/mingw64/bin/../lib/gcc/avr/8.4.0/../../../../avr/lib/avr5\libm.a(fixunssfsi.o)
__heap_end                                        e:/qmk_msys/mingw64/bin/../lib/gcc/avr/8.4.0/../../../../avr/lib/avr5/crtatmega32u4.o
__init                                            e:/qmk_msys/mingw64/bin/../lib/gcc/avr/8.4.0/../../../../avr/lib/avr5/crtatmega32u4.o
__mulhisi3                                        e:/qmk_msys/mingw64/bin/../lib/gcc/avr/8.4.0/avr5\libgcc.a(_mulhisi3.o)
                                                  .build/obj_atelier6k_default/quantum/rgblight/rgblight.o
__mulohisi3                                       e:/qmk_msys/mingw64/bin/../lib/gcc/avr/8.4.0/avr5\libgcc.a(_mulshisi3.o)
__mulsf3                                          e:/qmk_msys/mingw64/bin/../lib/gcc/avr/8.4.0/../../../../avr/lib/avr5\libm.a(mulsf3.o)
                                                  .build/obj_atelier6k_default/protocol/host.o
__mulsf3_pse                                      e:/qmk_msys/mingw64/bin/../lib/gcc/avr/8.4.0/../../../../avr/lib/avr5\libm.a(mulsf3x.o)
__mulsf3x                                         e:/qmk_msys/mingw64/bin/../lib/gcc/avr/8.4.0/../../../../avr/lib/avr5\libm.a(mulsf3x.o)
                                                  e:/qmk_msys/mingw64/bin/../lib/gcc/avr/8.4.0/../../../../avr/lib/avr5\libm.a(mulsf3.o)
__mulshisi3                                       e:/qmk_msys/mingw64/bin/../lib/gcc/avr/8.4.0/avr5\libgcc.a(_mulshisi3.o)
                                                  .build/obj_atelier6k_default/quantum/rgblight/rgblight.o
__mulsi3                                          e:/qmk_msys/mingw64/bin/../lib/gcc/avr/8.4.0/avr5\libgcc.a(_mulsi3.o)
                                                  .build/obj_atelier6k_default/quantum/backlight/backlight_avr.o
__muluhisi3                                       e:/qmk_msys/mingw64/bin/../lib/gcc/avr/8.4.0/avr5\libgcc.a(_muluhisi3.o)
                                                  e:/qmk_msys/mingw64/bin/../lib/gcc/avr/8.4.0/avr5\libgcc.a(_mulshisi3.o)
                                                  e:/qmk_msys/mingw64/bin/../lib/gcc/avr/8.4.0/avr5\libgcc.a(_mulsi3.o)
                                                  .build/obj_atelier6k_default/quantum/backlight/backlight_avr.o
                                                  .build/obj_atelier6k_default/quantum/rgblight/rgblight.o
__prologue_saves__                                e:/qmk_msys/mingw64/bin/../lib/gcc/avr/8.4.0/avr5\libgcc.a(_prologue.o)
                                                  .build/obj_atelier6k_default/lib/lufa/LUFA/Drivers/USB/Core/DeviceStandardReq.o
                                                  .build/obj_atelier6k_default/lib/lufa/LUFA/Drivers/USB/Core/ConfigDescriptors.o
                                                  .build/obj_atelier6k_default/lib/lufa/LUFA/Drivers/USB/Class/Common/HIDParser.o
                                                  .build/obj_atelier6k_default/lufa.o
                                                  .build/obj_atelier6k_default/platforms/avr/hardware_id.o
                                                  .build/obj_atelier6k_default/protocol/host.o
                                                  .build/obj_atelier6k_default/quantum/dynamic_keymap.o
                                                  .build/obj_atelier6k_default/quantum/backlight/backlight_avr.o
                                                  .build/obj_atelier6k_default/quantum/rgblight/rgblight.o
                                                  .build/obj_atelier6k_default/quantum/mousekey.o
                                                  .build/obj_atelier6k_default/quantum/matrix.o
                                                  .build/obj_atelier6k_default/quantum/keyboard.o
                                                  .build/obj_atelier6k_default/quantum/action_tapping.o
                                                  .build/obj_atelier6k_default/quantum/action.o
                                                  .build/obj_atelier6k_default/quantum/bitwise.o
                                                  .build/obj_atelier6k_default/quantum/send_string.o
                                                  .build/obj_atelier6k_default/quantum/quantum.o
__stack                                           e:/qmk_msys/mingw64/bin/../lib/gcc/avr/8.4.0/../../../../avr/lib/avr5/crtatmega32u4.o
__tablejump2__                                    e:/qmk_msys/mingw64/bin/../lib/gcc/avr/8.4.0/avr5\libgcc.a(_tablejump2.o)
                                                  .build/obj_atelier6k_default/lib/lufa/LUFA/Drivers/USB/Core/DeviceStandardReq.o
                                                  .build/obj_atelier6k_default/quantum/via.o
                                                  .build/obj_atelier6k_default/quantum/action.o
__udivmodhi4                                      e:/qmk_msys/mingw64/bin/../lib/gcc/avr/8.4.0/avr5\libgcc.a(_udivmodhi4.o)
                                                  e:/qmk_msys/mingw64/bin/../lib/gcc/avr/8.4.0/avr5\libgcc.a(_divmodhi4.o)
                                                  .build/obj_atelier6k_default/quantum/via.o
                                                  .build/obj_atelier6k_default/quantum/backlight/backlight_avr.o
                                                  .build/obj_atelier6k_default/quantum/rgblight/rgblight.o
                                                  .build/obj_atelier6k_default/quantum/color.o
__udivmodqi4                                      e:/qmk_msys/mingw64/bin/../lib/gcc/avr/8.4.0/avr5\libgcc.a(_udivmodqi4.o)
                                                  e:/qmk_msys/mingw64/bin/../lib/gcc/avr/8.4.0/avr5\libgcc.a(_divmodqi4.o)
__udivmodsi4                                      e:/qmk_msys/mingw64/bin/../lib/gcc/avr/8.4.0/avr5\libgcc.a(_udivmodsi4.o)
                                                  .build/obj_atelier6k_default/quantum/backlight/backlight_avr.o
                                                  .build/obj_atelier6k_default/quantum/rgblight/rgblight.o
                                                  .build/obj_atelier6k_default/quantum/quantum.o
__umulhisi3                                       e:/qmk_msys/mingw64/bin/../lib/gcc/avr/8.4.0/avr5\libgcc.a(_umulhisi3.o)
                                                  e:/qmk_msys/mingw64/bin/../lib/gcc/avr/8.4.0/avr5\libgcc.a(_muluhisi3.o)
                                                  e:/qmk_msys/mingw64/bin/../lib/gcc/avr/8.4.0/avr5\libgcc.a(_usmulhisi3.o)
                                                  e:/qmk_msys/mingw64/bin/../lib/gcc/avr/8.4.0/avr5\libgcc.a(_mulhisi3.o)
                                                  .build/obj_atelier6k_default/quantum/backlight/backlight_avr.o
                                                  .build/obj_atelier6k_default/quantum/rgblight/rgblight.o
__usmulhisi3                                      e:/qmk_msys/mingw64/bin/../lib/gcc/avr/8.4.0/avr5\libgcc.a(_usmulhisi3.o)
__usmulhisi3_tail                                 e:/qmk_msys/mingw64/bin/../lib/gcc/avr/8.4.0/avr5\libgcc.a(_usmulhisi3.o)
                                                  e:/qmk_msys/mingw64/bin/../lib/gcc/avr/8.4.0/avr5\libgcc.a(_mulhisi3.o)
__vector_1                                        e:/qmk_msys/mingw64/bin/../lib/gcc/avr/8.4.0/../../../../avr/lib/avr5/crtatmega32u4.o
__vector_10                                       .build/obj_atelier6k_default/lib/lufa/LUFA/Drivers/USB/Core/AVR8/USBInterrupt_AVR8.o
                                                  e:/qmk_msys/mingw64/bin/../lib/gcc/avr/8.4.0/../../../../avr/lib/avr5/crtatmega32u4.o
__vector_11                                       .build/obj_atelier6k_default/lib/lufa/LUFA/Drivers/USB/Core/AVR8/USBInterrupt_AVR8.o
                                                  e:/qmk_msys/mingw64/bin/../lib/gcc/avr/8.4.0/../../../../avr/lib/avr5/crtatmega32u4.o
__vector_12                                       .build/obj_atelier6k_default/platforms/avr/suspend.o
                                                  e:/qmk_msys/mingw64/bin/../lib/gcc/avr/8.4.0/../../../../avr/lib/avr5/crtatmega32u4.o
__vector_13                                       e:/qmk_msys/mingw64/bin/../lib/gcc/avr/8.4.0/../../../../avr/lib/avr5/crtatmega32u4.o
__vector_14                                       e:/qmk_msys/mingw64/bin/../lib/gcc/avr/8.4.0/../../../../avr/lib/avr5/crtatmega32u4.o
__vector_15                                       e:/qmk_msys/mingw64/bin/../lib/gcc/avr/8.4.0/../../../../avr/lib/avr5/crtatmega32u4.o
__vector_16                                       e:/qmk_msys/mingw64/bin/../lib/gcc/avr/8.4.0/../../../../avr/lib/avr5/crtatmega32u4.o
__vector_17                                       .build/obj_atelier6k_default/quantum/backlight/backlight_avr.o
                                                  e:/qmk_msys/mingw64/bin/../lib/gcc/avr/8.4.0/../../../../avr/lib/avr5/crtatmega32u4.o
__vector_18                                       e:/qmk_msys/mingw64/bin/../lib/gcc/avr/8.4.0/../../../../avr/lib/avr5/crtatmega32u4.o
__vector_19                                       e:/qmk_msys/mingw64/bin/../lib/gcc/avr/8.4.0/../../../../avr/lib/avr5/crtatmega32u4.o
__vector_2                                        e:/qmk_msys/mingw64/bin/../lib/gcc/avr/8.4.0/../../../../avr/lib/avr5/crtatmega32u4.o
__vector_20                                       .build/obj_atelier6k_default/quantum/backlight/backlight_avr.o
                                                  e:/qmk_msys/mingw64/bin/../lib/gcc/avr/8.4.0/../../../../avr/lib/avr5/crtatmega32u4.o
__vector_21                                       .build/obj_atelier6k_default/platforms/avr/timer.o
                                                  e:/qmk_msys/mingw64/bin/../lib/gcc/avr/8.4.0/../../../../avr/lib/avr5/crtatmega32u4.o
__vector_22                                       e:/qmk_msys/mingw64/bin/../lib/gcc/avr/8.4.0/../../../../avr/lib/avr5/crtatmega32u4.o
__vector_23                                       e:/qmk_msys/mingw64/bin/../lib/gcc/avr/8.4.0/../../../../avr/lib/avr5/crtatmega32u4.o
__vector_24                                       e:/qmk_msys/mingw64/bin/../lib/gcc/avr/8.4.0/../../../../avr/lib/avr5/crtatmega32u4.o
__vector_25                                       e:/qmk_msys/mingw64/bin/../lib/gcc/avr/8.4.0/../../../../avr/lib/avr5/crtatmega32u4.o
__vector_26                                       e:/qmk_msys/mingw64/bin/../lib/gcc/avr/8.4.0/../../../../avr/lib/avr5/crtatmega32u4.o
__vector_27                                       e:/qmk_msys/mingw64/bin/../lib/gcc/avr/8.4.0/../../../../avr/lib/avr5/crtatmega32u4.o
__vector_28                                       e:/qmk_msys/mingw64/bin/../lib/gcc/avr/8.4.0/../../../../avr/lib/avr5/crtatmega32u4.o
__vector_29                                       e:/qmk_msys/mingw64/bin/../lib/gcc/avr/8.4.0/../../../../avr/lib/avr5/crtatmega32u4.o
__vector_3                                        e:/qmk_msys/mingw64/bin/../lib/gcc/avr/8.4.0/../../../../avr/lib/avr5/crtatmega32u4.o
__vector_30                                       e:/qmk_msys/mingw64/bin/../lib/gcc/avr/8.4.0/../../../../avr/lib/avr5/crtatmega32u4.o
__vector_31                                       e:/qmk_msys/mingw64/bin/../lib/gcc/avr/8.4.0/../../../../avr/lib/avr5/crtatmega32u4.o
__vector_32                                       e:/qmk_msys/mingw64/bin/../lib/gcc/avr/8.4.0/../../../../avr/lib/avr5/crtatmega32u4.o
__vector_33                                       e:/qmk_msys/mingw64/bin/../lib/gcc/avr/8.4.0/../../../../avr/lib/avr5/crtatmega32u4.o
__vector_34                                       e:/qmk_msys/mingw64/bin/../lib/gcc/avr/8.4.0/../../../../avr/lib/avr5/crtatmega32u4.o
__vector_35                                       e:/qmk_msys/mingw64/bin/../lib/gcc/avr/8.4.0/../../../../avr/lib/avr5/crtatmega32u4.o
__vector_36                                       e:/qmk_msys/mingw64/bin/../lib/gcc/avr/8.4.0/../../../../avr/lib/avr5/crtatmega32u4.o
__vector_37                                       e:/qmk_msys/mingw64/bin/../lib/gcc/avr/8.4.0/../../../../avr/lib/avr5/crtatmega32u4.o
__vector_38                                       e:/qmk_msys/mingw64/bin/../lib/gcc/avr/8.4.0/../../../../avr/lib/avr5/crtatmega32u4.o
__vector_39                                       e:/qmk_msys/mingw64/bin/../lib/gcc/avr/8.4.0/../../../../avr/lib/avr5/crtatmega32u4.o
__vector_4                                        e:/qmk_msys/mingw64/bin/../lib/gcc/avr/8.4.0/../../../../avr/lib/avr5/crtatmega32u4.o
__vector_40                                       e:/qmk_msys/mingw64/bin/../lib/gcc/avr/8.4.0/../../../../avr/lib/avr5/crtatmega32u4.o
__vector_41                                       e:/qmk_msys/mingw64/bin/../lib/gcc/avr/8.4.0/../../../../avr/lib/avr5/crtatmega32u4.o
__vector_42                                       e:/qmk_msys/mingw64/bin/../lib/gcc/avr/8.4.0/../../../../avr/lib/avr5/crtatmega32u4.o
__vector_5                                        e:/qmk_msys/mingw64/bin/../lib/gcc/avr/8.4.0/../../../../avr/lib/avr5/crtatmega32u4.o
__vector_6                                        e:/qmk_msys/mingw64/bin/../lib/gcc/avr/8.4.0/../../../../avr/lib/avr5/crtatmega32u4.o
__vector_7                                        e:/qmk_msys/mingw64/bin/../lib/gcc/avr/8.4.0/../../../../avr/lib/avr5/crtatmega32u4.o
__vector_8                                        e:/qmk_msys/mingw64/bin/../lib/gcc/avr/8.4.0/../../../../avr/lib/avr5/crtatmega32u4.o
__vector_9                                        e:/qmk_msys/mingw64/bin/../lib/gcc/avr/8.4.0/../../../../avr/lib/avr5/crtatmega32u4.o
__vector_default                                  e:/qmk_msys/mingw64/bin/../lib/gcc/avr/8.4.0/../../../../avr/lib/avr5/crtatmega32u4.o
__vectors                                         e:/qmk_msys/mingw64/bin/../lib/gcc/avr/8.4.0/../../../../avr/lib/avr5/crtatmega32u4.o
__xprintf                                         .build/obj_atelier6k_default/platforms/avr/xprintf.o
_div                                              e:/qmk_msys/mingw64/bin/../lib/gcc/avr/8.4.0/avr5\libgcc.a(_divmodhi4.o)
_exit                                             e:/qmk_msys/mingw64/bin/../lib/gcc/avr/8.4.0/avr5\libgcc.a(_exit.o)
action_exec                                       .build/obj_atelier6k_default/quantum/action.o
                                                  .build/obj_atelier6k_default/quantum/keyboard.o
action_for_key                                    .build/obj_atelier6k_default/quantum/keymap_common.o
                                                  .build/obj_atelier6k_default/quantum/action_layer.o
action_for_keycode                                .build/obj_atelier6k_default/quantum/keymap_common.o
action_tapping_process                            .build/obj_atelier6k_default/quantum/action_tapping.o
                                                  .build/obj_atelier6k_default/quantum/action.o
add_key                                           .build/obj_atelier6k_default/quantum/action_util.o
                                                  .build/obj_atelier6k_default/quantum/process_keycode/process_grave_esc.o
                                                  .build/obj_atelier6k_default/quantum/action.o
add_key_bit                                       .build/obj_atelier6k_default/protocol/report.o
add_key_byte                                      .build/obj_atelier6k_default/protocol/report.o
add_key_to_report                                 .build/obj_atelier6k_default/protocol/report.o
                                                  .build/obj_atelier6k_default/quantum/action_util.o
add_mods                                          .build/obj_atelier6k_default/quantum/action_util.o
                                                  .build/obj_atelier6k_default/quantum/action.o
add_oneshot_mods                                  .build/obj_atelier6k_default/quantum/action_util.o
add_weak_mods                                     .build/obj_atelier6k_default/quantum/action_util.o
                                                  .build/obj_atelier6k_default/quantum/action.o
animation_status                                  .build/obj_atelier6k_default/quantum/rgblight/rgblight.o
ascii_to_altgr_lut                                .build/obj_atelier6k_default/quantum/send_string.o
ascii_to_dead_lut                                 .build/obj_atelier6k_default/quantum/send_string.o
ascii_to_keycode_lut                              .build/obj_atelier6k_default/quantum/send_string.o
ascii_to_shift_lut                                .build/obj_atelier6k_default/quantum/send_string.o
backlight_config                                  .build/obj_atelier6k_default/quantum/backlight/backlight.o
backlight_decrease                                .build/obj_atelier6k_default/quantum/backlight/backlight.o
                                                  .build/obj_atelier6k_default/quantum/process_keycode/process_backlight.o
backlight_disable                                 .build/obj_atelier6k_default/quantum/backlight/backlight.o
backlight_enable                                  .build/obj_atelier6k_default/quantum/backlight/backlight.o
backlight_increase                                .build/obj_atelier6k_default/quantum/backlight/backlight.o
                                                  .build/obj_atelier6k_default/quantum/process_keycode/process_backlight.o
backlight_init                                    .build/obj_atelier6k_default/quantum/backlight/backlight.o
                                                  .build/obj_atelier6k_default/quantum/backlight/backlight_avr.o
                                                  .build/obj_atelier6k_default/quantum/keyboard.o
                                                  .build/obj_atelier6k_default/quantum/quantum.o
backlight_init_ports                              .build/obj_atelier6k_default/quantum/backlight/backlight_avr.o
                                                  .build/obj_atelier6k_default/quantum/backlight/backlight.o
                                                  .build/obj_atelier6k_default/quantum/keyboard.o
backlight_level                                   .build/obj_atelier6k_default/quantum/backlight/backlight.o
                                                  .build/obj_atelier6k_default/quantum/process_keycode/process_backlight.o
backlight_level_noeeprom                          .build/obj_atelier6k_default/quantum/backlight/backlight.o
                                                  .build/obj_atelier6k_default/quantum/via.o
backlight_pins_init                               .build/obj_atelier6k_default/quantum/backlight/backlight_driver_common.o
                                                  .build/obj_atelier6k_default/quantum/backlight/backlight_avr.o
backlight_pins_off                                .build/obj_atelier6k_default/quantum/backlight/backlight_driver_common.o
                                                  .build/obj_atelier6k_default/quantum/backlight/backlight_avr.o
backlight_pins_on                                 .build/obj_atelier6k_default/quantum/backlight/backlight_driver_common.o
                                                  .build/obj_atelier6k_default/quantum/backlight/backlight_avr.o
backlight_set                                     .build/obj_atelier6k_default/quantum/backlight/backlight_avr.o
                                                  .build/obj_atelier6k_default/quantum/backlight/backlight.o
                                                  .build/obj_atelier6k_default/quantum/quantum.o
backlight_step                                    .build/obj_atelier6k_default/quantum/backlight/backlight.o
                                                  .build/obj_atelier6k_default/quantum/process_keycode/process_backlight.o
backlight_task                                    .build/obj_atelier6k_default/quantum/backlight/backlight_avr.o
                                                  .build/obj_atelier6k_default/quantum/backlight/backlight.o
                                                  .build/obj_atelier6k_default/quantum/keyboard.o
backlight_toggle                                  .build/obj_atelier6k_default/quantum/backlight/backlight.o
                                                  .build/obj_atelier6k_default/quantum/process_keycode/process_backlight.o
biton                                             .build/obj_atelier6k_default/quantum/bitwise.o
                                                  .build/obj_atelier6k_default/protocol/report.o
biton16                                           .build/obj_atelier6k_default/quantum/bitwise.o
biton32                                           .build/obj_atelier6k_default/quantum/bitwise.o
bitpop                                            .build/obj_atelier6k_default/quantum/bitwise.o
                                                  .build/obj_atelier6k_default/quantum/action_util.o
bitpop16                                          .build/obj_atelier6k_default/quantum/bitwise.o
bitpop32                                          .build/obj_atelier6k_default/quantum/bitwise.o
bitrev                                            .build/obj_atelier6k_default/quantum/bitwise.o
bitrev16                                          .build/obj_atelier6k_default/quantum/bitwise.o
bitrev32                                          .build/obj_atelier6k_default/quantum/bitwise.o
bootloader_jump                                   .build/obj_atelier6k_default/platforms/avr/bootloaders/dfu.o
                                                  .build/obj_atelier6k_default/quantum/bootmagic/bootmagic_lite.o
                                                  .build/obj_atelier6k_default/quantum/quantum.o
bootloader_jump_after_watchdog_reset              .build/obj_atelier6k_default/platforms/avr/bootloaders/dfu.o
bootmagic                                         .build/obj_atelier6k_default/quantum/bootmagic/bootmagic_lite.o
bootmagic_lite                                    .build/obj_atelier6k_default/quantum/bootmagic/bootmagic_lite.o
bootmagic_lite_reset_eeprom                       .build/obj_atelier6k_default/quantum/bootmagic/bootmagic_lite.o
clear_keyboard                                    .build/obj_atelier6k_default/quantum/action.o
                                                  .build/obj_atelier6k_default/lufa.o
                                                  .build/obj_atelier6k_default/platforms/avr/suspend.o
                                                  .build/obj_atelier6k_default/quantum/process_keycode/process_magic.o
                                                  .build/obj_atelier6k_default/quantum/action_tapping.o
                                                  .build/obj_atelier6k_default/quantum/quantum.o
clear_keyboard_but_mods                           .build/obj_atelier6k_default/quantum/action.o
clear_keyboard_but_mods_and_keys                  .build/obj_atelier6k_default/quantum/action.o
                                                  .build/obj_atelier6k_default/quantum/action_layer.o
clear_keys                                        .build/obj_atelier6k_default/quantum/action_util.o
                                                  .build/obj_atelier6k_default/quantum/action.o
clear_keys_from_report                            .build/obj_atelier6k_default/protocol/report.o
                                                  .build/obj_atelier6k_default/quantum/action_util.o
clear_mods                                        .build/obj_atelier6k_default/quantum/action_util.o
                                                  .build/obj_atelier6k_default/quantum/action.o
clear_oneshot_layer_state                         .build/obj_atelier6k_default/quantum/action_util.o
                                                  .build/obj_atelier6k_default/quantum/action.o
clear_oneshot_locked_mods                         .build/obj_atelier6k_default/quantum/action_util.o
clear_oneshot_mods                                .build/obj_atelier6k_default/quantum/action_util.o
                                                  .build/obj_atelier6k_default/quantum/action.o
clear_weak_mods                                   .build/obj_atelier6k_default/quantum/action_util.o
                                                  .build/obj_atelier6k_default/quantum/action.o
convert_rgb_to_rgbw                               .build/obj_atelier6k_default/quantum/color.o
                                                  .build/obj_atelier6k_default/quantum/rgblight/rgblight.o
debounce                                          .build/obj_atelier6k_default/quantum/debounce/sym_defer_g.o
                                                  .build/obj_atelier6k_default/quantum/matrix.o
                                                  .build/obj_atelier6k_default/quantum/matrix_common.o
debounce_free                                     .build/obj_atelier6k_default/quantum/debounce/sym_defer_g.o
debounce_init                                     .build/obj_atelier6k_default/quantum/debounce/sym_defer_g.o
                                                  .build/obj_atelier6k_default/quantum/matrix.o
                                                  .build/obj_atelier6k_default/quantum/matrix_common.o
debug_action                                      .build/obj_atelier6k_default/quantum/action.o
debug_config                                      .build/obj_atelier6k_default/quantum/logging/debug.o
                                                  .build/obj_atelier6k_default/quantum/bootmagic/magic.o
                                                  .build/obj_atelier6k_default/quantum/keyboard.o
debug_event                                       .build/obj_atelier6k_default/quantum/action.o
                                                  .build/obj_atelier6k_default/quantum/action_tapping.o
debug_record                                      .build/obj_atelier6k_default/quantum/action.o
                                                  .build/obj_atelier6k_default/quantum/action_tapping.o
default_layer_and                                 .build/obj_atelier6k_default/quantum/action_layer.o
                                                  .build/obj_atelier6k_default/quantum/action.o
default_layer_debug                               .build/obj_atelier6k_default/quantum/action_layer.o
                                                  .build/obj_atelier6k_default/quantum/action.o
default_layer_or                                  .build/obj_atelier6k_default/quantum/action_layer.o
                                                  .build/obj_atelier6k_default/quantum/action.o
default_layer_set                                 .build/obj_atelier6k_default/quantum/action_layer.o
                                                  .build/obj_atelier6k_default/quantum/bootmagic/magic.o
                                                  .build/obj_atelier6k_default/quantum/action.o
                                                  .build/obj_atelier6k_default/quantum/quantum.o
default_layer_state                               .build/obj_atelier6k_default/quantum/action_layer.o
                                                  .build/obj_atelier6k_default/quantum/eeconfig.o
default_layer_state_set_kb                        .build/obj_atelier6k_default/quantum/action_layer.o
default_layer_state_set_user                      .build/obj_atelier6k_default/quantum/action_layer.o
default_layer_xor                                 .build/obj_atelier6k_default/quantum/action_layer.o
                                                  .build/obj_atelier6k_default/quantum/action.o
del_key                                           .build/obj_atelier6k_default/quantum/action_util.o
                                                  .build/obj_atelier6k_default/quantum/process_keycode/process_grave_esc.o
                                                  .build/obj_atelier6k_default/quantum/action.o
del_key_bit                                       .build/obj_atelier6k_default/protocol/report.o
del_key_byte                                      .build/obj_atelier6k_default/protocol/report.o
del_key_from_report                               .build/obj_atelier6k_default/protocol/report.o
                                                  .build/obj_atelier6k_default/quantum/action_util.o
del_mods                                          .build/obj_atelier6k_default/quantum/action_util.o
                                                  .build/obj_atelier6k_default/quantum/action.o
del_oneshot_mods                                  .build/obj_atelier6k_default/quantum/action_util.o
del_weak_mods                                     .build/obj_atelier6k_default/quantum/action_util.o
                                                  .build/obj_atelier6k_default/quantum/action.o
disable_action_cache                              .build/obj_atelier6k_default/quantum/action.o
                                                  .build/obj_atelier6k_default/quantum/action_layer.o
                                                  .build/obj_atelier6k_default/quantum/quantum.o
do_code16                                         .build/obj_atelier6k_default/quantum/quantum.o
dynamic_keymap_get_buffer                         .build/obj_atelier6k_default/quantum/dynamic_keymap.o
                                                  .build/obj_atelier6k_default/quantum/via.o
dynamic_keymap_get_keycode                        .build/obj_atelier6k_default/quantum/dynamic_keymap.o
                                                  .build/obj_atelier6k_default/quantum/via.o
dynamic_keymap_get_layer_count                    .build/obj_atelier6k_default/quantum/dynamic_keymap.o
                                                  .build/obj_atelier6k_default/quantum/via.o
dynamic_keymap_key_to_eeprom_address              .build/obj_atelier6k_default/quantum/dynamic_keymap.o
dynamic_keymap_macro_get_buffer                   .build/obj_atelier6k_default/quantum/dynamic_keymap.o
                                                  .build/obj_atelier6k_default/quantum/via.o
dynamic_keymap_macro_get_buffer_size              .build/obj_atelier6k_default/quantum/dynamic_keymap.o
                                                  .build/obj_atelier6k_default/quantum/via.o
dynamic_keymap_macro_get_count                    .build/obj_atelier6k_default/quantum/dynamic_keymap.o
                                                  .build/obj_atelier6k_default/quantum/via.o
dynamic_keymap_macro_reset                        .build/obj_atelier6k_default/quantum/dynamic_keymap.o
                                                  .build/obj_atelier6k_default/quantum/via.o
dynamic_keymap_macro_send                         .build/obj_atelier6k_default/quantum/dynamic_keymap.o
                                                  .build/obj_atelier6k_default/quantum/via.o
dynamic_keymap_macro_set_buffer                   .build/obj_atelier6k_default/quantum/dynamic_keymap.o
                                                  .build/obj_atelier6k_default/quantum/via.o
dynamic_keymap_reset                              .build/obj_atelier6k_default/quantum/dynamic_keymap.o
                                                  .build/obj_atelier6k_default/quantum/via.o
dynamic_keymap_set_buffer                         .build/obj_atelier6k_default/quantum/dynamic_keymap.o
                                                  .build/obj_atelier6k_default/quantum/via.o
dynamic_keymap_set_keycode                        .build/obj_atelier6k_default/quantum/dynamic_keymap.o
                                                  .build/obj_atelier6k_default/quantum/via.o
eeconfig_debug_rgblight                           .build/obj_atelier6k_default/quantum/rgblight/rgblight.o
eeconfig_disable                                  .build/obj_atelier6k_default/quantum/eeconfig.o
                                                  .build/obj_atelier6k_default/quantum/bootmagic/bootmagic_lite.o
eeconfig_enable                                   .build/obj_atelier6k_default/quantum/eeconfig.o
eeconfig_init                                     .build/obj_atelier6k_default/quantum/eeconfig.o
                                                  .build/obj_atelier6k_default/quantum/backlight/backlight.o
                                                  .build/obj_atelier6k_default/quantum/rgblight/rgblight.o
                                                  .build/obj_atelier6k_default/quantum/bootmagic/magic.o
                                                  .build/obj_atelier6k_default/quantum/quantum.o
eeconfig_init_kb                                  .build/obj_atelier6k_default/quantum/eeconfig.o
eeconfig_init_quantum                             .build/obj_atelier6k_default/quantum/eeconfig.o
eeconfig_init_user                                .build/obj_atelier6k_default/quantum/eeconfig.o
eeconfig_init_via                                 .build/obj_atelier6k_default/quantum/via.o
                                                  .build/obj_atelier6k_default/quantum/eeconfig.o
eeconfig_is_disabled                              .build/obj_atelier6k_default/quantum/eeconfig.o
eeconfig_is_enabled                               .build/obj_atelier6k_default/quantum/eeconfig.o
                                                  .build/obj_atelier6k_default/quantum/backlight/backlight.o
                                                  .build/obj_atelier6k_default/quantum/rgblight/rgblight.o
                                                  .build/obj_atelier6k_default/quantum/bootmagic/magic.o
eeconfig_read_audio                               .build/obj_atelier6k_default/quantum/eeconfig.o
eeconfig_read_backlight                           .build/obj_atelier6k_default/quantum/backlight/backlight.o
eeconfig_read_debug                               .build/obj_atelier6k_default/quantum/eeconfig.o
                                                  .build/obj_atelier6k_default/quantum/bootmagic/magic.o
eeconfig_read_default_layer                       .build/obj_atelier6k_default/quantum/eeconfig.o
                                                  .build/obj_atelier6k_default/quantum/bootmagic/magic.o
eeconfig_read_handedness                          .build/obj_atelier6k_default/quantum/eeconfig.o
eeconfig_read_haptic                              .build/obj_atelier6k_default/quantum/eeconfig.o
eeconfig_read_kb                                  .build/obj_atelier6k_default/quantum/eeconfig.o
eeconfig_read_keymap                              .build/obj_atelier6k_default/quantum/eeconfig.o
                                                  .build/obj_atelier6k_default/quantum/process_keycode/process_magic.o
                                                  .build/obj_atelier6k_default/quantum/bootmagic/magic.o
eeconfig_read_rgblight                            .build/obj_atelier6k_default/quantum/rgblight/rgblight.o
eeconfig_read_user                                .build/obj_atelier6k_default/quantum/eeconfig.o
eeconfig_update_audio                             .build/obj_atelier6k_default/quantum/eeconfig.o
eeconfig_update_backlight                         .build/obj_atelier6k_default/quantum/backlight/backlight.o
eeconfig_update_backlight_current                 .build/obj_atelier6k_default/quantum/backlight/backlight.o
                                                  .build/obj_atelier6k_default/quantum/via.o
eeconfig_update_backlight_default                 .build/obj_atelier6k_default/quantum/backlight/backlight.o
eeconfig_update_debug                             .build/obj_atelier6k_default/quantum/eeconfig.o
eeconfig_update_default_layer                     .build/obj_atelier6k_default/quantum/eeconfig.o
                                                  .build/obj_atelier6k_default/quantum/quantum.o
eeconfig_update_handedness                        .build/obj_atelier6k_default/quantum/eeconfig.o
                                                  .build/obj_atelier6k_default/quantum/process_keycode/process_magic.o
eeconfig_update_haptic                            .build/obj_atelier6k_default/quantum/eeconfig.o
eeconfig_update_kb                                .build/obj_atelier6k_default/quantum/eeconfig.o
eeconfig_update_keymap                            .build/obj_atelier6k_default/quantum/eeconfig.o
                                                  .build/obj_atelier6k_default/quantum/process_keycode/process_magic.o
                                                  .build/obj_atelier6k_default/quantum/keyboard.o
                                                  .build/obj_atelier6k_default/quantum/action_util.o
eeconfig_update_rgblight                          .build/obj_atelier6k_default/quantum/rgblight/rgblight.o
eeconfig_update_rgblight_current                  .build/obj_atelier6k_default/quantum/rgblight/rgblight.o
                                                  .build/obj_atelier6k_default/quantum/via.o
eeconfig_update_rgblight_default                  .build/obj_atelier6k_default/quantum/rgblight/rgblight.o
eeconfig_update_user                              .build/obj_atelier6k_default/quantum/eeconfig.o
eeprom_read_block                                 e:/qmk_msys/mingw64/bin/../lib/gcc/avr/8.4.0/../../../../avr/lib/avr5\libatmega32u4.a(eerd_block.o)
eeprom_read_blraw                                 e:/qmk_msys/mingw64/bin/../lib/gcc/avr/8.4.0/../../../../avr/lib/avr5\libatmega32u4.a(eerd_block.o)
                                                  e:/qmk_msys/mingw64/bin/../lib/gcc/avr/8.4.0/../../../../avr/lib/avr5\libatmega32u4.a(eerd_word.o)
                                                  e:/qmk_msys/mingw64/bin/../lib/gcc/avr/8.4.0/../../../../avr/lib/avr5\libatmega32u4.a(eerd_dword.o)
eeprom_read_byte                                  e:/qmk_msys/mingw64/bin/../lib/gcc/avr/8.4.0/../../../../avr/lib/avr5\libatmega32u4.a(eerd_byte.o)
                                                  .build/obj_atelier6k_default/lib/lufa/LUFA/Drivers/USB/Core/AVR8/EndpointStream_AVR8.o
                                                  .build/obj_atelier6k_default/quantum/dynamic_keymap.o
                                                  .build/obj_atelier6k_default/quantum/via.o
                                                  .build/obj_atelier6k_default/quantum/backlight/backlight.o
                                                  .build/obj_atelier6k_default/quantum/eeconfig.o
eeprom_read_dword                                 e:/qmk_msys/mingw64/bin/../lib/gcc/avr/8.4.0/../../../../avr/lib/avr5\libatmega32u4.a(eerd_dword.o)
                                                  .build/obj_atelier6k_default/quantum/rgblight/rgblight.o
                                                  .build/obj_atelier6k_default/quantum/eeconfig.o
eeprom_read_float                                 e:/qmk_msys/mingw64/bin/../lib/gcc/avr/8.4.0/../../../../avr/lib/avr5\libatmega32u4.a(eerd_dword.o)
eeprom_read_word                                  e:/qmk_msys/mingw64/bin/../lib/gcc/avr/8.4.0/../../../../avr/lib/avr5\libatmega32u4.a(eerd_word.o)
                                                  .build/obj_atelier6k_default/quantum/eeconfig.o
eeprom_update_byte                                e:/qmk_msys/mingw64/bin/../lib/gcc/avr/8.4.0/../../../../avr/lib/avr5\libatmega32u4.a(eeupd_byte.o)
                                                  e:/qmk_msys/mingw64/bin/../lib/gcc/avr/8.4.0/../../../../avr/lib/avr5\libatmega32u4.a(eeupd_word.o)
                                                  e:/qmk_msys/mingw64/bin/../lib/gcc/avr/8.4.0/../../../../avr/lib/avr5\libatmega32u4.a(eeupd_dword.o)
                                                  .build/obj_atelier6k_default/lib/lufa/LUFA/Drivers/USB/Core/AVR8/EndpointStream_AVR8.o
                                                  .build/obj_atelier6k_default/quantum/dynamic_keymap.o
                                                  .build/obj_atelier6k_default/quantum/via.o
                                                  .build/obj_atelier6k_default/quantum/backlight/backlight.o
                                                  .build/obj_atelier6k_default/quantum/eeconfig.o
eeprom_update_dword                               e:/qmk_msys/mingw64/bin/../lib/gcc/avr/8.4.0/../../../../avr/lib/avr5\libatmega32u4.a(eeupd_dword.o)
                                                  .build/obj_atelier6k_default/quantum/rgblight/rgblight.o
                                                  .build/obj_atelier6k_default/quantum/eeconfig.o
eeprom_update_float                               e:/qmk_msys/mingw64/bin/../lib/gcc/avr/8.4.0/../../../../avr/lib/avr5\libatmega32u4.a(eeupd_dword.o)
eeprom_update_r18                                 e:/qmk_msys/mingw64/bin/../lib/gcc/avr/8.4.0/../../../../avr/lib/avr5\libatmega32u4.a(eeupd_byte.o)
                                                  e:/qmk_msys/mingw64/bin/../lib/gcc/avr/8.4.0/../../../../avr/lib/avr5\libatmega32u4.a(eeupd_word.o)
                                                  e:/qmk_msys/mingw64/bin/../lib/gcc/avr/8.4.0/../../../../avr/lib/avr5\libatmega32u4.a(eeupd_dword.o)
eeprom_update_word                                e:/qmk_msys/mingw64/bin/../lib/gcc/avr/8.4.0/../../../../avr/lib/avr5\libatmega32u4.a(eeupd_word.o)
                                                  .build/obj_atelier6k_default/quantum/eeconfig.o
exit                                              e:/qmk_msys/mingw64/bin/../lib/gcc/avr/8.4.0/avr5\libgcc.a(_exit.o)
                                                  e:/qmk_msys/mingw64/bin/../lib/gcc/avr/8.4.0/../../../../avr/lib/avr5/crtatmega32u4.o
extract_mod_bits                                  .build/obj_atelier6k_default/quantum/quantum.o
get_backlight_level                               .build/obj_atelier6k_default/quantum/backlight/backlight.o
                                                  .build/obj_atelier6k_default/quantum/via.o
get_event_keycode                                 .build/obj_atelier6k_default/quantum/quantum.o
get_first_key                                     .build/obj_atelier6k_default/protocol/report.o
get_hardware_id                                   .build/obj_atelier6k_default/platforms/avr/hardware_id.o
get_mods                                          .build/obj_atelier6k_default/quantum/action_util.o
                                                  .build/obj_atelier6k_default/quantum/process_keycode/process_grave_esc.o
                                                  .build/obj_atelier6k_default/quantum/process_keycode/process_rgb.o
get_numeric_str                                   .build/obj_atelier6k_default/quantum/quantum.o
get_oneshot_layer                                 .build/obj_atelier6k_default/quantum/action_util.o
                                                  .build/obj_atelier6k_default/quantum/action.o
get_oneshot_layer_state                           .build/obj_atelier6k_default/quantum/action_util.o
                                                  .build/obj_atelier6k_default/quantum/action.o
get_oneshot_locked_mods                           .build/obj_atelier6k_default/quantum/action_util.o
get_oneshot_mods                                  .build/obj_atelier6k_default/quantum/action_util.o
                                                  .build/obj_atelier6k_default/quantum/action.o
get_record_keycode                                .build/obj_atelier6k_default/quantum/quantum.o
get_u16_str                                       .build/obj_atelier6k_default/quantum/quantum.o
get_u8_str                                        .build/obj_atelier6k_default/quantum/quantum.o
get_usb_descriptor                                .build/obj_atelier6k_default/usb_descriptor.o
                                                  .build/obj_atelier6k_default/lufa.o
get_weak_mods                                     .build/obj_atelier6k_default/quantum/action_util.o
has_anykey                                        .build/obj_atelier6k_default/protocol/report.o
                                                  .build/obj_atelier6k_default/quantum/action_util.o
has_anymod                                        .build/obj_atelier6k_default/quantum/action_util.o
has_mouse_report_changed                          .build/obj_atelier6k_default/protocol/report.o
                                                  .build/obj_atelier6k_default/quantum/mousekey.o
has_oneshot_mods_timed_out                        .build/obj_atelier6k_default/quantum/action_util.o
host_consumer_send                                .build/obj_atelier6k_default/protocol/host.o
                                                  .build/obj_atelier6k_default/quantum/action.o
host_digitizer_send                               .build/obj_atelier6k_default/protocol/host.o
host_get_driver                                   .build/obj_atelier6k_default/protocol/host.o
host_keyboard_led_state                           .build/obj_atelier6k_default/protocol/host.o
host_keyboard_leds                                .build/obj_atelier6k_default/protocol/host.o
                                                  .build/obj_atelier6k_default/quantum/action.o
                                                  .build/obj_atelier6k_default/quantum/led.o
host_keyboard_send                                .build/obj_atelier6k_default/protocol/host.o
                                                  .build/obj_atelier6k_default/quantum/action_util.o
host_last_consumer_report                         .build/obj_atelier6k_default/protocol/host.o
host_last_programmable_button_report              .build/obj_atelier6k_default/protocol/host.o
host_last_system_report                           .build/obj_atelier6k_default/protocol/host.o
host_mouse_send                                   .build/obj_atelier6k_default/protocol/host.o
                                                  .build/obj_atelier6k_default/quantum/mousekey.o
host_programmable_button_send                     .build/obj_atelier6k_default/protocol/host.o
host_set_driver                                   .build/obj_atelier6k_default/protocol/host.o
                                                  .build/obj_atelier6k_default/lufa.o
host_system_send                                  .build/obj_atelier6k_default/protocol/host.o
                                                  .build/obj_atelier6k_default/quantum/action.o
housekeeping_task                                 .build/obj_atelier6k_default/quantum/keyboard.o
                                                  .build/obj_atelier6k_default/quantum/main.o
housekeeping_task_kb                              .build/obj_atelier6k_default/quantum/keyboard.o
housekeeping_task_user                            .build/obj_atelier6k_default/quantum/keyboard.o
hsv_to_rgb                                        .build/obj_atelier6k_default/quantum/color.o
                                                  .build/obj_atelier6k_default/quantum/rgblight/rgblight.o
hsv_to_rgb_impl                                   .build/obj_atelier6k_default/quantum/color.o
hsv_to_rgb_nocie                                  .build/obj_atelier6k_default/quantum/color.o
is_backlight_enabled                              .build/obj_atelier6k_default/quantum/backlight/backlight.o
is_key_pressed                                    .build/obj_atelier6k_default/protocol/report.o
                                                  .build/obj_atelier6k_default/quantum/action.o
is_keyboard_left                                  .build/obj_atelier6k_default/quantum/keyboard.o
is_keyboard_master                                .build/obj_atelier6k_default/quantum/keyboard.o
is_oneshot_enabled                                .build/obj_atelier6k_default/quantum/action_util.o
is_oneshot_layer_active                           .build/obj_atelier6k_default/quantum/action_util.o
                                                  .build/obj_atelier6k_default/quantum/action.o
is_rgblight_initialized                           .build/obj_atelier6k_default/quantum/rgblight/rgblight.o
is_tap_action                                     .build/obj_atelier6k_default/quantum/action.o
is_tap_key                                        .build/obj_atelier6k_default/quantum/action.o
is_tap_record                                     .build/obj_atelier6k_default/quantum/action.o
                                                  .build/obj_atelier6k_default/quantum/action_tapping.o
keyboard_idle                                     .build/obj_atelier6k_default/lufa.o
keyboard_init                                     .build/obj_atelier6k_default/quantum/keyboard.o
                                                  .build/obj_atelier6k_default/quantum/main.o
keyboard_post_init_kb                             .build/obj_atelier6k_default/quantum/keyboard.o
keyboard_post_init_user                           .build/obj_atelier6k_default/quantum/keyboard.o
keyboard_pre_init_kb                              .build/obj_atelier6k_default/quantum/keyboard.o
keyboard_pre_init_user                            .build/obj_atelier6k_default/quantum/keyboard.o
keyboard_protocol                                 .build/obj_atelier6k_default/lufa.o
                                                  .build/obj_atelier6k_default/protocol/report.o
                                                  .build/obj_atelier6k_default/protocol/host.o
keyboard_report                                   .build/obj_atelier6k_default/quantum/action_util.o
                                                  .build/obj_atelier6k_default/quantum/action.o
keyboard_setup                                    .build/obj_atelier6k_default/quantum/keyboard.o
                                                  .build/obj_atelier6k_default/quantum/main.o
keyboard_task                                     .build/obj_atelier6k_default/quantum/keyboard.o
                                                  .build/obj_atelier6k_default/quantum/main.o
keycode_config                                    .build/obj_atelier6k_default/quantum/keycode_config.o
                                                  .build/obj_atelier6k_default/quantum/keymap_common.o
keymap_config                                     .build/obj_atelier6k_default/quantum/bootmagic/magic.o
                                                  .build/obj_atelier6k_default/lufa.o
                                                  .build/obj_atelier6k_default/protocol/report.o
                                                  .build/obj_atelier6k_default/protocol/host.o
                                                  .build/obj_atelier6k_default/quantum/process_keycode/process_magic.o
                                                  .build/obj_atelier6k_default/quantum/keycode_config.o
                                                  .build/obj_atelier6k_default/quantum/keyboard.o
                                                  .build/obj_atelier6k_default/quantum/action_util.o
                                                  .build/obj_atelier6k_default/quantum/action.o
keymap_key_to_keycode                             .build/obj_atelier6k_default/quantum/dynamic_keymap.o
                                                  .build/obj_atelier6k_default/quantum/keymap_common.o
                                                  .build/obj_atelier6k_default/quantum/quantum.o
keymaps                                           .build/obj_atelier6k_default/keyboards/atelier6k/keymaps/default/keymap.o
                                                  .build/obj_atelier6k_default/quantum/dynamic_keymap.o
                                                  .build/obj_atelier6k_default/quantum/keymap_common.o
last_encoder_activity_elapsed                     .build/obj_atelier6k_default/quantum/keyboard.o
last_encoder_activity_time                        .build/obj_atelier6k_default/quantum/keyboard.o
last_encoder_activity_trigger                     .build/obj_atelier6k_default/quantum/keyboard.o
last_input_activity_elapsed                       .build/obj_atelier6k_default/quantum/keyboard.o
last_input_activity_time                          .build/obj_atelier6k_default/quantum/keyboard.o
last_matrix_activity_elapsed                      .build/obj_atelier6k_default/quantum/keyboard.o
last_matrix_activity_time                         .build/obj_atelier6k_default/quantum/keyboard.o
last_matrix_activity_trigger                      .build/obj_atelier6k_default/quantum/keyboard.o
layer_and                                         .build/obj_atelier6k_default/quantum/action_layer.o
                                                  .build/obj_atelier6k_default/quantum/action.o
layer_clear                                       .build/obj_atelier6k_default/quantum/action_layer.o
                                                  .build/obj_atelier6k_default/quantum/action.o
layer_debug                                       .build/obj_atelier6k_default/quantum/action_layer.o
                                                  .build/obj_atelier6k_default/quantum/action.o
layer_invert                                      .build/obj_atelier6k_default/quantum/action_layer.o
                                                  .build/obj_atelier6k_default/quantum/action.o
layer_move                                        .build/obj_atelier6k_default/quantum/action_layer.o
                                                  .build/obj_atelier6k_default/quantum/action.o
layer_off                                         .build/obj_atelier6k_default/quantum/action_layer.o
                                                  .build/obj_atelier6k_default/quantum/via.o
                                                  .build/obj_atelier6k_default/quantum/action_util.o
                                                  .build/obj_atelier6k_default/quantum/action.o
layer_on                                          .build/obj_atelier6k_default/quantum/action_layer.o
                                                  .build/obj_atelier6k_default/quantum/via.o
                                                  .build/obj_atelier6k_default/quantum/action_util.o
                                                  .build/obj_atelier6k_default/quantum/action.o
layer_or                                          .build/obj_atelier6k_default/quantum/action_layer.o
                                                  .build/obj_atelier6k_default/quantum/action.o
layer_state                                       .build/obj_atelier6k_default/quantum/action_layer.o
                                                  .build/obj_atelier6k_default/quantum/bootmagic/magic.o
                                                  .build/obj_atelier6k_default/quantum/quantum.o
layer_state_cmp                                   .build/obj_atelier6k_default/quantum/action_layer.o
layer_state_is                                    .build/obj_atelier6k_default/quantum/action_layer.o
layer_state_set                                   .build/obj_atelier6k_default/quantum/action_layer.o
                                                  .build/obj_atelier6k_default/quantum/action.o
                                                  .build/obj_atelier6k_default/quantum/quantum.o
layer_state_set_kb                                .build/obj_atelier6k_default/quantum/action_layer.o
                                                  .build/obj_atelier6k_default/quantum/bootmagic/magic.o
layer_state_set_user                              .build/obj_atelier6k_default/quantum/action_layer.o
layer_switch_get_action                           .build/obj_atelier6k_default/quantum/action_layer.o
                                                  .build/obj_atelier6k_default/quantum/action_tapping.o
                                                  .build/obj_atelier6k_default/quantum/action.o
layer_switch_get_layer                            .build/obj_atelier6k_default/quantum/action_layer.o
                                                  .build/obj_atelier6k_default/quantum/quantum.o
layer_xor                                         .build/obj_atelier6k_default/quantum/action_layer.o
                                                  .build/obj_atelier6k_default/quantum/action.o
led                                               .build/obj_atelier6k_default/quantum/rgblight/rgblight.o
led_init_ports                                    .build/obj_atelier6k_default/quantum/led.o
                                                  .build/obj_atelier6k_default/quantum/keyboard.o
led_set                                           .build/obj_atelier6k_default/quantum/led.o
                                                  .build/obj_atelier6k_default/quantum/action.o
led_set_kb                                        .build/obj_atelier6k_default/quantum/led.o
led_set_user                                      .build/obj_atelier6k_default/quantum/led.o
led_suspend                                       .build/obj_atelier6k_default/quantum/led.o
                                                  .build/obj_atelier6k_default/quantum/quantum.o
led_task                                          .build/obj_atelier6k_default/quantum/led.o
                                                  .build/obj_atelier6k_default/quantum/keyboard.o
led_update_kb                                     .build/obj_atelier6k_default/quantum/led.o
led_update_user                                   .build/obj_atelier6k_default/quantum/led.o
led_wakeup                                        .build/obj_atelier6k_default/quantum/led.o
                                                  .build/obj_atelier6k_default/quantum/quantum.o
lufa_driver                                       .build/obj_atelier6k_default/lufa.o
magic                                             .build/obj_atelier6k_default/quantum/bootmagic/magic.o
                                                  .build/obj_atelier6k_default/quantum/keyboard.o
main                                              .build/obj_atelier6k_default/quantum/main.o
                                                  e:/qmk_msys/mingw64/bin/../lib/gcc/avr/8.4.0/../../../../avr/lib/avr5/crtatmega32u4.o
matrix                                            .build/obj_atelier6k_default/quantum/matrix_common.o
                                                  .build/obj_atelier6k_default/quantum/matrix.o
matrix_cols                                       .build/obj_atelier6k_default/quantum/matrix_common.o
matrix_get_row                                    .build/obj_atelier6k_default/quantum/matrix_common.o
                                                  .build/obj_atelier6k_default/platforms/suspend.o
                                                  .build/obj_atelier6k_default/quantum/via.o
                                                  .build/obj_atelier6k_default/quantum/bootmagic/bootmagic_lite.o
                                                  .build/obj_atelier6k_default/quantum/keyboard.o
matrix_init                                       .build/obj_atelier6k_default/quantum/matrix.o
                                                  .build/obj_atelier6k_default/quantum/matrix_common.o
                                                  .build/obj_atelier6k_default/quantum/keyboard.o
matrix_init_custom                                .build/obj_atelier6k_default/quantum/matrix_common.o
matrix_init_kb                                    .build/obj_atelier6k_default/quantum/matrix_common.o
                                                  .build/obj_atelier6k_default/quantum/quantum.o
matrix_init_pins                                  .build/obj_atelier6k_default/quantum/matrix.o
matrix_init_quantum                               .build/obj_atelier6k_default/quantum/quantum.o
                                                  .build/obj_atelier6k_default/quantum/matrix.o
                                                  .build/obj_atelier6k_default/quantum/matrix_common.o
matrix_init_user                                  .build/obj_atelier6k_default/keyboards/atelier6k/keymaps/default/keymap.o
matrix_io_delay                                   .build/obj_atelier6k_default/quantum/matrix_common.o
matrix_is_on                                      .build/obj_atelier6k_default/quantum/matrix_common.o
matrix_output_select_delay                        .build/obj_atelier6k_default/quantum/matrix_common.o
                                                  .build/obj_atelier6k_default/quantum/matrix.o
matrix_output_unselect_delay                      .build/obj_atelier6k_default/quantum/matrix_common.o
                                                  .build/obj_atelier6k_default/quantum/matrix.o
matrix_power_down                                 .build/obj_atelier6k_default/platforms/suspend.o
matrix_power_up                                   .build/obj_atelier6k_default/platforms/suspend.o
matrix_print                                      .build/obj_atelier6k_default/quantum/matrix_common.o
                                                  .build/obj_atelier6k_default/quantum/keyboard.o
matrix_read_cols_on_row                           .build/obj_atelier6k_default/quantum/matrix.o
matrix_rows                                       .build/obj_atelier6k_default/quantum/matrix_common.o
matrix_scan                                       .build/obj_atelier6k_default/quantum/matrix.o
                                                  .build/obj_atelier6k_default/quantum/matrix_common.o
                                                  .build/obj_atelier6k_default/platforms/suspend.o
                                                  .build/obj_atelier6k_default/quantum/bootmagic/bootmagic_lite.o
                                                  .build/obj_atelier6k_default/quantum/keyboard.o
matrix_scan_custom                                .build/obj_atelier6k_default/quantum/matrix_common.o
matrix_scan_kb                                    .build/obj_atelier6k_default/quantum/matrix_common.o
                                                  .build/obj_atelier6k_default/quantum/quantum.o
matrix_scan_quantum                               .build/obj_atelier6k_default/quantum/quantum.o
                                                  .build/obj_atelier6k_default/quantum/matrix.o
                                                  .build/obj_atelier6k_default/quantum/matrix_common.o
matrix_scan_task                                  .build/obj_atelier6k_default/quantum/keyboard.o
matrix_scan_user                                  .build/obj_atelier6k_default/keyboards/atelier6k/keymaps/default/keymap.o
matrix_setup                                      .build/obj_atelier6k_default/quantum/keyboard.o
mcu_reset                                         .build/obj_atelier6k_default/platforms/avr/bootloaders/dfu.o
                                                  .build/obj_atelier6k_default/quantum/quantum.o
memchr                                            e:/qmk_msys/mingw64/bin/../lib/gcc/avr/8.4.0/../../../../avr/lib/avr5\libc.a(memchr.o)
                                                  .build/obj_atelier6k_default/quantum/rgblight/rgblight.o
memcmp                                            e:/qmk_msys/mingw64/bin/../lib/gcc/avr/8.4.0/../../../../avr/lib/avr5\libc.a(memcmp.o)
                                                  .build/obj_atelier6k_default/protocol/report.o
                                                  .build/obj_atelier6k_default/quantum/matrix.o
                                                  .build/obj_atelier6k_default/quantum/action_util.o
mk_delay                                          .build/obj_atelier6k_default/quantum/mousekey.o
mk_interval                                       .build/obj_atelier6k_default/quantum/mousekey.o
mk_max_speed                                      .build/obj_atelier6k_default/quantum/mousekey.o
mk_time_to_max                                    .build/obj_atelier6k_default/quantum/mousekey.o
mk_wheel_delay                                    .build/obj_atelier6k_default/quantum/mousekey.o
mk_wheel_interval                                 .build/obj_atelier6k_default/quantum/mousekey.o
mk_wheel_max_speed                                .build/obj_atelier6k_default/quantum/mousekey.o
mk_wheel_time_to_max                              .build/obj_atelier6k_default/quantum/mousekey.o
mod_config                                        .build/obj_atelier6k_default/quantum/keycode_config.o
                                                  .build/obj_atelier6k_default/quantum/keymap_common.o
mousekey_clear                                    .build/obj_atelier6k_default/quantum/mousekey.o
                                                  .build/obj_atelier6k_default/quantum/action.o
mousekey_get_report                               .build/obj_atelier6k_default/quantum/mousekey.o
mousekey_off                                      .build/obj_atelier6k_default/quantum/mousekey.o
                                                  .build/obj_atelier6k_default/quantum/action.o
mousekey_on                                       .build/obj_atelier6k_default/quantum/mousekey.o
                                                  .build/obj_atelier6k_default/quantum/action.o
mousekey_send                                     .build/obj_atelier6k_default/quantum/mousekey.o
                                                  .build/obj_atelier6k_default/quantum/action.o
mousekey_task                                     .build/obj_atelier6k_default/quantum/mousekey.o
                                                  .build/obj_atelier6k_default/quantum/keyboard.o
notify_usb_device_state_change_kb                 .build/obj_atelier6k_default/protocol/usb_device_state.o
notify_usb_device_state_change_user               .build/obj_atelier6k_default/protocol/usb_device_state.o
oneshot_disable                                   .build/obj_atelier6k_default/quantum/action_util.o
                                                  .build/obj_atelier6k_default/quantum/quantum.o
oneshot_enable                                    .build/obj_atelier6k_default/quantum/action_util.o
                                                  .build/obj_atelier6k_default/quantum/quantum.o
oneshot_layer_changed_kb                          .build/obj_atelier6k_default/quantum/action_util.o
oneshot_layer_changed_user                        .build/obj_atelier6k_default/quantum/action_util.o
oneshot_locked_mods_changed_kb                    .build/obj_atelier6k_default/quantum/action_util.o
oneshot_locked_mods_changed_user                  .build/obj_atelier6k_default/quantum/action_util.o
oneshot_mods_changed_kb                           .build/obj_atelier6k_default/quantum/action_util.o
oneshot_mods_changed_user                         .build/obj_atelier6k_default/quantum/action_util.o
oneshot_set                                       .build/obj_atelier6k_default/quantum/action_util.o
oneshot_toggle                                    .build/obj_atelier6k_default/quantum/action_util.o
                                                  .build/obj_atelier6k_default/quantum/quantum.o
peek_matrix                                       .build/obj_atelier6k_default/quantum/matrix_common.o
perform_space_cadet                               .build/obj_atelier6k_default/quantum/process_keycode/process_space_cadet.o
platform_setup                                    .build/obj_atelier6k_default/platforms/avr/platform.o
                                                  .build/obj_atelier6k_default/quantum/main.o
post_process_record_kb                            .build/obj_atelier6k_default/quantum/quantum.o
post_process_record_quantum                       .build/obj_atelier6k_default/quantum/quantum.o
post_process_record_user                          .build/obj_atelier6k_default/quantum/quantum.o
pre_process_record_quantum                        .build/obj_atelier6k_default/quantum/quantum.o
print_set_sendchar                                .build/obj_atelier6k_default/platforms/avr/printf.o
                                                  .build/obj_atelier6k_default/quantum/keyboard.o
process_action                                    .build/obj_atelier6k_default/quantum/action.o
process_action_kb                                 .build/obj_atelier6k_default/quantum/quantum.o
process_backlight                                 .build/obj_atelier6k_default/quantum/process_keycode/process_backlight.o
                                                  .build/obj_atelier6k_default/quantum/quantum.o
process_grave_esc                                 .build/obj_atelier6k_default/quantum/process_keycode/process_grave_esc.o
                                                  .build/obj_atelier6k_default/quantum/quantum.o
process_magic                                     .build/obj_atelier6k_default/quantum/process_keycode/process_magic.o
                                                  .build/obj_atelier6k_default/quantum/quantum.o
process_record                                    .build/obj_atelier6k_default/quantum/action.o
                                                  .build/obj_atelier6k_default/quantum/action_tapping.o
process_record_handler                            .build/obj_atelier6k_default/quantum/action.o
process_record_kb                                 .build/obj_atelier6k_default/quantum/quantum.o
process_record_nocache                            .build/obj_atelier6k_default/quantum/action.o
process_record_quantum                            .build/obj_atelier6k_default/quantum/quantum.o
process_record_tap_hint                           .build/obj_atelier6k_default/quantum/action.o
                                                  .build/obj_atelier6k_default/quantum/action_tapping.o
process_record_user                               .build/obj_atelier6k_default/keyboards/atelier6k/keymaps/default/keymap.o
process_record_via                                .build/obj_atelier6k_default/quantum/via.o
                                                  .build/obj_atelier6k_default/quantum/quantum.o
process_rgb                                       .build/obj_atelier6k_default/quantum/process_keycode/process_rgb.o
                                                  .build/obj_atelier6k_default/quantum/quantum.o
process_space_cadet                               .build/obj_atelier6k_default/quantum/process_keycode/process_space_cadet.o
                                                  .build/obj_atelier6k_default/quantum/quantum.o
protocol_init                                     .build/obj_atelier6k_default/quantum/main.o
protocol_post_init                                .build/obj_atelier6k_default/lufa.o
                                                  .build/obj_atelier6k_default/quantum/main.o
protocol_post_task                                .build/obj_atelier6k_default/lufa.o
                                                  .build/obj_atelier6k_default/quantum/main.o
protocol_pre_init                                 .build/obj_atelier6k_default/lufa.o
                                                  .build/obj_atelier6k_default/quantum/main.o
protocol_pre_task                                 .build/obj_atelier6k_default/lufa.o
                                                  .build/obj_atelier6k_default/quantum/main.o
protocol_setup                                    .build/obj_atelier6k_default/lufa.o
                                                  .build/obj_atelier6k_default/quantum/main.o
protocol_task                                     .build/obj_atelier6k_default/quantum/main.o
quantum_init                                      .build/obj_atelier6k_default/quantum/keyboard.o
quantum_task                                      .build/obj_atelier6k_default/quantum/keyboard.o
raw_hid_receive                                   .build/obj_atelier6k_default/quantum/via.o
raw_hid_receive_kb                                .build/obj_atelier6k_default/quantum/via.o
raw_hid_send                                      .build/obj_atelier6k_default/lufa.o
                                                  .build/obj_atelier6k_default/quantum/via.o
raw_matrix                                        .build/obj_atelier6k_default/quantum/matrix_common.o
                                                  .build/obj_atelier6k_default/quantum/matrix.o
read_source_layers_cache                          .build/obj_atelier6k_default/quantum/action_layer.o
                                                  .build/obj_atelier6k_default/quantum/quantum.o
read_source_layers_cache_impl                     .build/obj_atelier6k_default/quantum/action_layer.o
register_code                                     .build/obj_atelier6k_default/quantum/action.o
                                                  .build/obj_atelier6k_default/quantum/send_string.o
                                                  .build/obj_atelier6k_default/quantum/quantum.o
register_code16                                   .build/obj_atelier6k_default/quantum/quantum.o
register_mods                                     .build/obj_atelier6k_default/quantum/action.o
                                                  .build/obj_atelier6k_default/quantum/process_keycode/process_space_cadet.o
                                                  .build/obj_atelier6k_default/quantum/quantum.o
register_weak_mods                                .build/obj_atelier6k_default/quantum/action.o
                                                  .build/obj_atelier6k_default/quantum/quantum.o
reset_key                                         .build/obj_atelier6k_default/platforms/avr/bootloaders/dfu.o
reset_keyboard                                    .build/obj_atelier6k_default/quantum/quantum.o
reset_oneshot_layer                               .build/obj_atelier6k_default/quantum/action_util.o
rgblight_call_driver                              .build/obj_atelier6k_default/quantum/rgblight/rgblight.o
rgblight_check_config                             .build/obj_atelier6k_default/quantum/rgblight/rgblight.o
rgblight_config                                   .build/obj_atelier6k_default/quantum/rgblight/rgblight.o
rgblight_decrease                                 .build/obj_atelier6k_default/quantum/rgblight/rgblight.o
rgblight_decrease_hue                             .build/obj_atelier6k_default/quantum/rgblight/rgblight.o
                                                  .build/obj_atelier6k_default/quantum/process_keycode/process_rgb.o
rgblight_decrease_hue_helper                      .build/obj_atelier6k_default/quantum/rgblight/rgblight.o
rgblight_decrease_hue_noeeprom                    .build/obj_atelier6k_default/quantum/rgblight/rgblight.o
rgblight_decrease_sat                             .build/obj_atelier6k_default/quantum/rgblight/rgblight.o
                                                  .build/obj_atelier6k_default/quantum/process_keycode/process_rgb.o
rgblight_decrease_sat_helper                      .build/obj_atelier6k_default/quantum/rgblight/rgblight.o
rgblight_decrease_sat_noeeprom                    .build/obj_atelier6k_default/quantum/rgblight/rgblight.o
rgblight_decrease_speed                           .build/obj_atelier6k_default/quantum/rgblight/rgblight.o
                                                  .build/obj_atelier6k_default/quantum/process_keycode/process_rgb.o
rgblight_decrease_speed_helper                    .build/obj_atelier6k_default/quantum/rgblight/rgblight.o
rgblight_decrease_speed_noeeprom                  .build/obj_atelier6k_default/quantum/rgblight/rgblight.o
rgblight_decrease_val                             .build/obj_atelier6k_default/quantum/rgblight/rgblight.o
                                                  .build/obj_atelier6k_default/quantum/process_keycode/process_rgb.o
rgblight_decrease_val_helper                      .build/obj_atelier6k_default/quantum/rgblight/rgblight.o
rgblight_decrease_val_noeeprom                    .build/obj_atelier6k_default/quantum/rgblight/rgblight.o
rgblight_disable                                  .build/obj_atelier6k_default/quantum/rgblight/rgblight.o
rgblight_disable_noeeprom                         .build/obj_atelier6k_default/quantum/rgblight/rgblight.o
                                                  .build/obj_atelier6k_default/quantum/via.o
rgblight_effect_alternating                       .build/obj_atelier6k_default/quantum/rgblight/rgblight.o
rgblight_effect_breathe_table                     .build/obj_atelier6k_default/quantum/rgblight/rgblight.o
rgblight_effect_breathing                         .build/obj_atelier6k_default/quantum/rgblight/rgblight.o
rgblight_effect_christmas                         .build/obj_atelier6k_default/quantum/rgblight/rgblight.o
rgblight_effect_knight                            .build/obj_atelier6k_default/quantum/rgblight/rgblight.o
rgblight_effect_rainbow_mood                      .build/obj_atelier6k_default/quantum/rgblight/rgblight.o
rgblight_effect_rainbow_swirl                     .build/obj_atelier6k_default/quantum/rgblight/rgblight.o
rgblight_effect_rgbtest                           .build/obj_atelier6k_default/quantum/rgblight/rgblight.o
rgblight_effect_snake                             .build/obj_atelier6k_default/quantum/rgblight/rgblight.o
rgblight_enable                                   .build/obj_atelier6k_default/quantum/rgblight/rgblight.o
rgblight_enable_noeeprom                          .build/obj_atelier6k_default/quantum/rgblight/rgblight.o
                                                  .build/obj_atelier6k_default/quantum/via.o
rgblight_get_hsv                                  .build/obj_atelier6k_default/quantum/rgblight/rgblight.o
rgblight_get_hue                                  .build/obj_atelier6k_default/quantum/rgblight/rgblight.o
                                                  .build/obj_atelier6k_default/quantum/via.o
rgblight_get_mode                                 .build/obj_atelier6k_default/quantum/rgblight/rgblight.o
                                                  .build/obj_atelier6k_default/quantum/via.o
                                                  .build/obj_atelier6k_default/quantum/process_keycode/process_rgb.o
rgblight_get_sat                                  .build/obj_atelier6k_default/quantum/rgblight/rgblight.o
                                                  .build/obj_atelier6k_default/quantum/via.o
rgblight_get_speed                                .build/obj_atelier6k_default/quantum/rgblight/rgblight.o
                                                  .build/obj_atelier6k_default/quantum/via.o
rgblight_get_val                                  .build/obj_atelier6k_default/quantum/rgblight/rgblight.o
                                                  .build/obj_atelier6k_default/quantum/via.o
rgblight_hsv_to_rgb                               .build/obj_atelier6k_default/quantum/rgblight/rgblight.o
rgblight_increase                                 .build/obj_atelier6k_default/quantum/rgblight/rgblight.o
rgblight_increase_hue                             .build/obj_atelier6k_default/quantum/rgblight/rgblight.o
                                                  .build/obj_atelier6k_default/quantum/process_keycode/process_rgb.o
rgblight_increase_hue_helper                      .build/obj_atelier6k_default/quantum/rgblight/rgblight.o
rgblight_increase_hue_noeeprom                    .build/obj_atelier6k_default/quantum/rgblight/rgblight.o
rgblight_increase_sat                             .build/obj_atelier6k_default/quantum/rgblight/rgblight.o
                                                  .build/obj_atelier6k_default/quantum/process_keycode/process_rgb.o
rgblight_increase_sat_helper                      .build/obj_atelier6k_default/quantum/rgblight/rgblight.o
rgblight_increase_sat_noeeprom                    .build/obj_atelier6k_default/quantum/rgblight/rgblight.o
rgblight_increase_speed                           .build/obj_atelier6k_default/quantum/rgblight/rgblight.o
                                                  .build/obj_atelier6k_default/quantum/process_keycode/process_rgb.o
rgblight_increase_speed_helper                    .build/obj_atelier6k_default/quantum/rgblight/rgblight.o
rgblight_increase_speed_noeeprom                  .build/obj_atelier6k_default/quantum/rgblight/rgblight.o
rgblight_increase_val                             .build/obj_atelier6k_default/quantum/rgblight/rgblight.o
                                                  .build/obj_atelier6k_default/quantum/process_keycode/process_rgb.o
rgblight_increase_val_helper                      .build/obj_atelier6k_default/quantum/rgblight/rgblight.o
rgblight_increase_val_noeeprom                    .build/obj_atelier6k_default/quantum/rgblight/rgblight.o
rgblight_init                                     .build/obj_atelier6k_default/quantum/rgblight/rgblight.o
                                                  .build/obj_atelier6k_default/quantum/keyboard.o
rgblight_is_enabled                               .build/obj_atelier6k_default/quantum/rgblight/rgblight.o
rgblight_mode                                     .build/obj_atelier6k_default/quantum/rgblight/rgblight.o
                                                  .build/obj_atelier6k_default/quantum/process_keycode/process_rgb.o
rgblight_mode_eeprom_helper                       .build/obj_atelier6k_default/quantum/rgblight/rgblight.o
rgblight_mode_noeeprom                            .build/obj_atelier6k_default/quantum/rgblight/rgblight.o
                                                  .build/obj_atelier6k_default/quantum/via.o
rgblight_ranges                                   .build/obj_atelier6k_default/quantum/rgblight/rgblight.o
rgblight_read_dword                               .build/obj_atelier6k_default/quantum/rgblight/rgblight.o
rgblight_reload_from_eeprom                       .build/obj_atelier6k_default/quantum/rgblight/rgblight.o
rgblight_set                                      .build/obj_atelier6k_default/quantum/rgblight/rgblight.o
rgblight_set_clipping_range                       .build/obj_atelier6k_default/quantum/rgblight/rgblight.o
rgblight_set_effect_range                         .build/obj_atelier6k_default/quantum/rgblight/rgblight.o
rgblight_set_speed                                .build/obj_atelier6k_default/quantum/rgblight/rgblight.o
rgblight_set_speed_eeprom_helper                  .build/obj_atelier6k_default/quantum/rgblight/rgblight.o
rgblight_set_speed_noeeprom                       .build/obj_atelier6k_default/quantum/rgblight/rgblight.o
                                                  .build/obj_atelier6k_default/quantum/via.o
rgblight_sethsv                                   .build/obj_atelier6k_default/quantum/rgblight/rgblight.o
rgblight_sethsv_at                                .build/obj_atelier6k_default/quantum/rgblight/rgblight.o
rgblight_sethsv_eeprom_helper                     .build/obj_atelier6k_default/quantum/rgblight/rgblight.o
rgblight_sethsv_master                            .build/obj_atelier6k_default/quantum/rgblight/rgblight.o
rgblight_sethsv_noeeprom                          .build/obj_atelier6k_default/quantum/rgblight/rgblight.o
                                                  .build/obj_atelier6k_default/quantum/via.o
rgblight_sethsv_noeeprom_old                      .build/obj_atelier6k_default/quantum/rgblight/rgblight.o
rgblight_sethsv_range                             .build/obj_atelier6k_default/quantum/rgblight/rgblight.o
rgblight_sethsv_slave                             .build/obj_atelier6k_default/quantum/rgblight/rgblight.o
rgblight_setrgb                                   .build/obj_atelier6k_default/quantum/rgblight/rgblight.o
rgblight_setrgb_at                                .build/obj_atelier6k_default/quantum/rgblight/rgblight.o
rgblight_setrgb_master                            .build/obj_atelier6k_default/quantum/rgblight/rgblight.o
rgblight_setrgb_range                             .build/obj_atelier6k_default/quantum/rgblight/rgblight.o
rgblight_setrgb_slave                             .build/obj_atelier6k_default/quantum/rgblight/rgblight.o
rgblight_show_solid_color                         .build/obj_atelier6k_default/quantum/rgblight/rgblight.o
rgblight_status                                   .build/obj_atelier6k_default/quantum/rgblight/rgblight.o
rgblight_step                                     .build/obj_atelier6k_default/quantum/rgblight/rgblight.o
                                                  .build/obj_atelier6k_default/quantum/process_keycode/process_rgb.o
rgblight_step_helper                              .build/obj_atelier6k_default/quantum/rgblight/rgblight.o
rgblight_step_noeeprom                            .build/obj_atelier6k_default/quantum/rgblight/rgblight.o
rgblight_step_reverse                             .build/obj_atelier6k_default/quantum/rgblight/rgblight.o
                                                  .build/obj_atelier6k_default/quantum/process_keycode/process_rgb.o
rgblight_step_reverse_helper                      .build/obj_atelier6k_default/quantum/rgblight/rgblight.o
rgblight_step_reverse_noeeprom                    .build/obj_atelier6k_default/quantum/rgblight/rgblight.o
rgblight_task                                     .build/obj_atelier6k_default/quantum/rgblight/rgblight.o
                                                  .build/obj_atelier6k_default/quantum/keyboard.o
rgblight_timer_disable                            .build/obj_atelier6k_default/quantum/rgblight/rgblight.o
rgblight_timer_enable                             .build/obj_atelier6k_default/quantum/rgblight/rgblight.o
rgblight_timer_init                               .build/obj_atelier6k_default/quantum/rgblight/rgblight.o
rgblight_timer_toggle                             .build/obj_atelier6k_default/quantum/rgblight/rgblight.o
rgblight_toggle                                   .build/obj_atelier6k_default/quantum/rgblight/rgblight.o
                                                  .build/obj_atelier6k_default/quantum/process_keycode/process_rgb.o
rgblight_toggle_noeeprom                          .build/obj_atelier6k_default/quantum/rgblight/rgblight.o
rgblight_update_dword                             .build/obj_atelier6k_default/quantum/rgblight/rgblight.o
send_byte                                         .build/obj_atelier6k_default/quantum/send_string.o
send_char                                         .build/obj_atelier6k_default/quantum/send_string.o
send_digitizer                                    .build/obj_atelier6k_default/lufa.o
                                                  .build/obj_atelier6k_default/protocol/host.o
send_dword                                        .build/obj_atelier6k_default/quantum/send_string.o
send_keyboard_report                              .build/obj_atelier6k_default/quantum/action_util.o
                                                  .build/obj_atelier6k_default/quantum/process_keycode/process_grave_esc.o
                                                  .build/obj_atelier6k_default/quantum/action.o
send_nibble                                       .build/obj_atelier6k_default/quantum/send_string.o
send_string                                       .build/obj_atelier6k_default/quantum/send_string.o
                                                  .build/obj_atelier6k_default/quantum/dynamic_keymap.o
send_string_P                                     .build/obj_atelier6k_default/quantum/send_string.o
send_string_with_delay                            .build/obj_atelier6k_default/quantum/send_string.o
send_string_with_delay_P                          .build/obj_atelier6k_default/quantum/send_string.o
send_word                                         .build/obj_atelier6k_default/quantum/send_string.o
sendchar                                          .build/obj_atelier6k_default/quantum/logging/sendchar.o
                                                  .build/obj_atelier6k_default/quantum/keyboard.o
set_mods                                          .build/obj_atelier6k_default/quantum/action_util.o
set_oneshot_layer                                 .build/obj_atelier6k_default/quantum/action_util.o
                                                  .build/obj_atelier6k_default/quantum/action.o
set_oneshot_locked_mods                           .build/obj_atelier6k_default/quantum/action_util.o
set_oneshot_mods                                  .build/obj_atelier6k_default/quantum/action_util.o
                                                  .build/obj_atelier6k_default/quantum/action.o
set_single_persistent_default_layer               .build/obj_atelier6k_default/quantum/quantum.o
set_weak_mods                                     .build/obj_atelier6k_default/quantum/action_util.o
sethsv                                            .build/obj_atelier6k_default/quantum/rgblight/rgblight.o
sethsv_raw                                        .build/obj_atelier6k_default/quantum/rgblight/rgblight.o
setrgb                                            .build/obj_atelier6k_default/quantum/rgblight/rgblight.o
should_process_keypress                           .build/obj_atelier6k_default/quantum/keyboard.o
shutdown_quantum                                  .build/obj_atelier6k_default/quantum/quantum.o
shutdown_user                                     .build/obj_atelier6k_default/quantum/quantum.o
soft_reset_keyboard                               .build/obj_atelier6k_default/quantum/quantum.o
source_layers_cache                               .build/obj_atelier6k_default/quantum/action_layer.o
startup_user                                      .build/obj_atelier6k_default/quantum/quantum.o
store_or_get_action                               .build/obj_atelier6k_default/quantum/action_layer.o
                                                  .build/obj_atelier6k_default/quantum/action.o
suspend_power_down                                .build/obj_atelier6k_default/platforms/avr/suspend.o
                                                  .build/obj_atelier6k_default/lufa.o
suspend_power_down_kb                             .build/obj_atelier6k_default/platforms/suspend.o
                                                  .build/obj_atelier6k_default/quantum/quantum.o
suspend_power_down_quantum                        .build/obj_atelier6k_default/quantum/quantum.o
                                                  .build/obj_atelier6k_default/platforms/avr/suspend.o
suspend_power_down_user                           .build/obj_atelier6k_default/platforms/suspend.o
suspend_wakeup_condition                          .build/obj_atelier6k_default/platforms/suspend.o
                                                  .build/obj_atelier6k_default/lufa.o
suspend_wakeup_init                               .build/obj_atelier6k_default/platforms/avr/suspend.o
                                                  .build/obj_atelier6k_default/lufa.o
suspend_wakeup_init_kb                            .build/obj_atelier6k_default/platforms/suspend.o
                                                  .build/obj_atelier6k_default/quantum/quantum.o
suspend_wakeup_init_quantum                       .build/obj_atelier6k_default/quantum/quantum.o
                                                  .build/obj_atelier6k_default/platforms/avr/suspend.o
suspend_wakeup_init_user                          .build/obj_atelier6k_default/platforms/suspend.o
switch_events                                     .build/obj_atelier6k_default/quantum/keyboard.o
tap_code                                          .build/obj_atelier6k_default/quantum/action.o
                                                  .build/obj_atelier6k_default/quantum/process_keycode/process_space_cadet.o
                                                  .build/obj_atelier6k_default/quantum/send_string.o
tap_code16                                        .build/obj_atelier6k_default/quantum/quantum.o
tap_code_delay                                    .build/obj_atelier6k_default/quantum/action.o
tap_random_base64                                 .build/obj_atelier6k_default/quantum/send_string.o
timer_clear                                       .build/obj_atelier6k_default/platforms/avr/timer.o
timer_count                                       .build/obj_atelier6k_default/platforms/avr/timer.o
                                                  .build/obj_atelier6k_default/platforms/avr/suspend.o
timer_elapsed                                     .build/obj_atelier6k_default/platforms/avr/timer.o
                                                  .build/obj_atelier6k_default/quantum/process_keycode/process_space_cadet.o
                                                  .build/obj_atelier6k_default/quantum/mousekey.o
                                                  .build/obj_atelier6k_default/quantum/debounce/sym_defer_g.o
timer_elapsed32                                   .build/obj_atelier6k_default/platforms/avr/timer.o
                                                  .build/obj_atelier6k_default/quantum/keyboard.o
timer_init                                        .build/obj_atelier6k_default/platforms/avr/timer.o
                                                  .build/obj_atelier6k_default/quantum/keyboard.o
timer_read                                        .build/obj_atelier6k_default/platforms/avr/timer.o
                                                  .build/obj_atelier6k_default/quantum/process_keycode/process_space_cadet.o
                                                  .build/obj_atelier6k_default/quantum/rgblight/rgblight.o
                                                  .build/obj_atelier6k_default/quantum/mousekey.o
                                                  .build/obj_atelier6k_default/quantum/debounce/sym_defer_g.o
                                                  .build/obj_atelier6k_default/quantum/keyboard.o
timer_read32                                      .build/obj_atelier6k_default/platforms/avr/timer.o
                                                  .build/obj_atelier6k_default/quantum/via.o
                                                  .build/obj_atelier6k_default/quantum/keyboard.o
tp_buttons                                        .build/obj_atelier6k_default/quantum/action.o
unregister_code                                   .build/obj_atelier6k_default/quantum/action.o
                                                  .build/obj_atelier6k_default/quantum/send_string.o
                                                  .build/obj_atelier6k_default/quantum/quantum.o
unregister_code16                                 .build/obj_atelier6k_default/quantum/quantum.o
unregister_mods                                   .build/obj_atelier6k_default/quantum/action.o
                                                  .build/obj_atelier6k_default/quantum/process_keycode/process_space_cadet.o
                                                  .build/obj_atelier6k_default/quantum/quantum.o
unregister_weak_mods                              .build/obj_atelier6k_default/quantum/action.o
                                                  .build/obj_atelier6k_default/quantum/quantum.o
update_source_layers_cache                        .build/obj_atelier6k_default/quantum/action_layer.o
                                                  .build/obj_atelier6k_default/quantum/quantum.o
update_source_layers_cache_impl                   .build/obj_atelier6k_default/quantum/action_layer.o
update_tri_layer                                  .build/obj_atelier6k_default/quantum/quantum.o
                                                  .build/obj_atelier6k_default/quantum/via.o
update_tri_layer_state                            .build/obj_atelier6k_default/quantum/quantum.o
usb_connected_state                               .build/obj_atelier6k_default/protocol/lufa/usb_util.o
                                                  .build/obj_atelier6k_default/protocol/usb_util.o
usb_device_state                                  .build/obj_atelier6k_default/protocol/usb_device_state.o
usb_device_state_init                             .build/obj_atelier6k_default/protocol/usb_device_state.o
                                                  .build/obj_atelier6k_default/lufa.o
usb_device_state_set_configuration                .build/obj_atelier6k_default/protocol/usb_device_state.o
                                                  .build/obj_atelier6k_default/lufa.o
usb_device_state_set_reset                        .build/obj_atelier6k_default/protocol/usb_device_state.o
                                                  .build/obj_atelier6k_default/lufa.o
usb_device_state_set_resume                       .build/obj_atelier6k_default/protocol/usb_device_state.o
                                                  .build/obj_atelier6k_default/lufa.o
usb_device_state_set_suspend                      .build/obj_atelier6k_default/protocol/usb_device_state.o
                                                  .build/obj_atelier6k_default/lufa.o
usb_disconnect                                    .build/obj_atelier6k_default/protocol/lufa/usb_util.o
                                                  .build/obj_atelier6k_default/protocol/usb_util.o
usb_vbus_state                                    .build/obj_atelier6k_default/protocol/lufa/usb_util.o
                                                  .build/obj_atelier6k_default/protocol/usb_util.o
via_eeprom_is_valid                               .build/obj_atelier6k_default/quantum/via.o
                                                  .build/obj_atelier6k_default/quantum/eeconfig.o
via_eeprom_set_valid                              .build/obj_atelier6k_default/quantum/via.o
                                                  .build/obj_atelier6k_default/quantum/eeconfig.o
via_get_layout_options                            .build/obj_atelier6k_default/quantum/via.o
via_init                                          .build/obj_atelier6k_default/quantum/via.o
                                                  .build/obj_atelier6k_default/quantum/keyboard.o
via_init_kb                                       .build/obj_atelier6k_default/quantum/via.o
via_qmk_backlight_get_value                       .build/obj_atelier6k_default/quantum/via.o
via_qmk_backlight_set_value                       .build/obj_atelier6k_default/quantum/via.o
via_qmk_rgblight_get_value                        .build/obj_atelier6k_default/quantum/via.o
via_qmk_rgblight_set_value                        .build/obj_atelier6k_default/quantum/via.o
via_set_layout_options                            .build/obj_atelier6k_default/quantum/via.o
via_set_layout_options_kb                         .build/obj_atelier6k_default/quantum/via.o
ws2812_setleds                                    .build/obj_atelier6k_default/ws2812.o
                                                  .build/obj_atelier6k_default/quantum/rgblight/rgblight.o
xfunc_out                                         .build/obj_atelier6k_default/platforms/avr/xprintf.o
                                                  .build/obj_atelier6k_default/platforms/avr/printf.o
xitoa                                             .build/obj_atelier6k_default/platforms/avr/xprintf.o
xputc                                             .build/obj_atelier6k_default/platforms/avr/xprintf.o
xputs                                             .build/obj_atelier6k_default/platforms/avr/xprintf.o
